
main.elf:     file format elf32-avr


Disassembly of section .text:

00000000 <__vectors>:
       0:	0c 94 73 00 	jmp	0xe6	; 0xe6 <__ctors_end>
       4:	0c 94 a3 17 	jmp	0x2f46	; 0x2f46 <__bad_interrupt>
       8:	0c 94 a3 17 	jmp	0x2f46	; 0x2f46 <__bad_interrupt>
       c:	0c 94 a3 17 	jmp	0x2f46	; 0x2f46 <__bad_interrupt>
      10:	0c 94 a3 17 	jmp	0x2f46	; 0x2f46 <__bad_interrupt>
      14:	0c 94 a3 17 	jmp	0x2f46	; 0x2f46 <__bad_interrupt>
      18:	0c 94 a3 17 	jmp	0x2f46	; 0x2f46 <__bad_interrupt>
      1c:	0c 94 a3 17 	jmp	0x2f46	; 0x2f46 <__bad_interrupt>
      20:	0c 94 a3 17 	jmp	0x2f46	; 0x2f46 <__bad_interrupt>
      24:	0c 94 a3 17 	jmp	0x2f46	; 0x2f46 <__bad_interrupt>
      28:	0c 94 a3 17 	jmp	0x2f46	; 0x2f46 <__bad_interrupt>
      2c:	0c 94 a3 17 	jmp	0x2f46	; 0x2f46 <__bad_interrupt>
      30:	0c 94 a3 17 	jmp	0x2f46	; 0x2f46 <__bad_interrupt>
      34:	0c 94 a3 17 	jmp	0x2f46	; 0x2f46 <__bad_interrupt>
      38:	0c 94 a3 17 	jmp	0x2f46	; 0x2f46 <__bad_interrupt>
      3c:	0c 94 a3 17 	jmp	0x2f46	; 0x2f46 <__bad_interrupt>
      40:	0c 94 a3 17 	jmp	0x2f46	; 0x2f46 <__bad_interrupt>
      44:	0c 94 a3 17 	jmp	0x2f46	; 0x2f46 <__bad_interrupt>
      48:	0c 94 a3 17 	jmp	0x2f46	; 0x2f46 <__bad_interrupt>
      4c:	0c 94 a3 17 	jmp	0x2f46	; 0x2f46 <__bad_interrupt>
      50:	0c 94 a3 17 	jmp	0x2f46	; 0x2f46 <__bad_interrupt>
      54:	0c 94 a3 17 	jmp	0x2f46	; 0x2f46 <__bad_interrupt>
      58:	0c 94 a3 17 	jmp	0x2f46	; 0x2f46 <__bad_interrupt>
      5c:	0c 94 a3 17 	jmp	0x2f46	; 0x2f46 <__bad_interrupt>
      60:	0c 94 a3 17 	jmp	0x2f46	; 0x2f46 <__bad_interrupt>
      64:	0c 94 a3 17 	jmp	0x2f46	; 0x2f46 <__bad_interrupt>
      68:	0c 94 a3 17 	jmp	0x2f46	; 0x2f46 <__bad_interrupt>
      6c:	0c 94 a3 17 	jmp	0x2f46	; 0x2f46 <__bad_interrupt>
      70:	0c 94 a3 17 	jmp	0x2f46	; 0x2f46 <__bad_interrupt>
      74:	0c 94 a3 17 	jmp	0x2f46	; 0x2f46 <__bad_interrupt>
      78:	0c 94 a3 17 	jmp	0x2f46	; 0x2f46 <__bad_interrupt>
      7c:	0c 94 a3 17 	jmp	0x2f46	; 0x2f46 <__bad_interrupt>
      80:	0c 94 a3 17 	jmp	0x2f46	; 0x2f46 <__bad_interrupt>
      84:	0c 94 a3 17 	jmp	0x2f46	; 0x2f46 <__bad_interrupt>
      88:	0c 94 a3 17 	jmp	0x2f46	; 0x2f46 <__bad_interrupt>
      8c:	0c 94 a3 17 	jmp	0x2f46	; 0x2f46 <__bad_interrupt>
      90:	0c 94 a3 17 	jmp	0x2f46	; 0x2f46 <__bad_interrupt>
      94:	0c 94 a3 17 	jmp	0x2f46	; 0x2f46 <__bad_interrupt>
      98:	0c 94 a3 17 	jmp	0x2f46	; 0x2f46 <__bad_interrupt>
      9c:	0c 94 a3 17 	jmp	0x2f46	; 0x2f46 <__bad_interrupt>
      a0:	0c 94 a3 17 	jmp	0x2f46	; 0x2f46 <__bad_interrupt>
      a4:	0c 94 a3 17 	jmp	0x2f46	; 0x2f46 <__bad_interrupt>
      a8:	0c 94 a3 17 	jmp	0x2f46	; 0x2f46 <__bad_interrupt>
      ac:	0c 94 a3 17 	jmp	0x2f46	; 0x2f46 <__bad_interrupt>
      b0:	0c 94 a3 17 	jmp	0x2f46	; 0x2f46 <__bad_interrupt>
      b4:	0c 94 a3 17 	jmp	0x2f46	; 0x2f46 <__bad_interrupt>
      b8:	0c 94 a3 17 	jmp	0x2f46	; 0x2f46 <__bad_interrupt>
      bc:	0c 94 a3 17 	jmp	0x2f46	; 0x2f46 <__bad_interrupt>
      c0:	0c 94 a3 17 	jmp	0x2f46	; 0x2f46 <__bad_interrupt>
      c4:	0c 94 a3 17 	jmp	0x2f46	; 0x2f46 <__bad_interrupt>
      c8:	0c 94 a3 17 	jmp	0x2f46	; 0x2f46 <__bad_interrupt>
      cc:	0c 94 a3 17 	jmp	0x2f46	; 0x2f46 <__bad_interrupt>
      d0:	0c 94 a3 17 	jmp	0x2f46	; 0x2f46 <__bad_interrupt>
      d4:	0c 94 a3 17 	jmp	0x2f46	; 0x2f46 <__bad_interrupt>
      d8:	0c 94 a3 17 	jmp	0x2f46	; 0x2f46 <__bad_interrupt>
      dc:	0c 94 a3 17 	jmp	0x2f46	; 0x2f46 <__bad_interrupt>
      e0:	0c 94 a3 17 	jmp	0x2f46	; 0x2f46 <__bad_interrupt>

000000e4 <exit>:
      e4:	ff cf       	rjmp	.-2      	; 0xe4 <exit>

000000e6 <__ctors_end>:
      e6:	11 24       	eor	r1, r1
      e8:	1f be       	out	0x3f, r1	; 63
      ea:	c0 e0       	ldi	r28, 0x00	; 0
      ec:	d0 e1       	ldi	r29, 0x10	; 16
      ee:	de bf       	out	0x3e, r29	; 62
      f0:	cd bf       	out	0x3d, r28	; 61

000000f2 <__do_copy_data>:
      f2:	13 e0       	ldi	r17, 0x03	; 3
      f4:	a0 e0       	ldi	r26, 0x00	; 0
      f6:	b2 e0       	ldi	r27, 0x02	; 2
      f8:	e4 ee       	ldi	r30, 0xE4	; 228
      fa:	ff e2       	ldi	r31, 0x2F	; 47
      fc:	00 e0       	ldi	r16, 0x00	; 0
      fe:	0b bf       	out	0x3b, r16	; 59
     100:	ae 3c       	cpi	r26, 0xCE	; 206
     102:	b1 07       	cpc	r27, r17
     104:	19 f0       	breq	.+6      	; 0x10c <__do_clear_bss>
     106:	07 90       	elpm	r0, Z+
     108:	0d 92       	st	X+, r0
     10a:	fa cf       	rjmp	.-12     	; 0x100 <__do_copy_data+0xe>

0000010c <__do_clear_bss>:
     10c:	13 e0       	ldi	r17, 0x03	; 3
     10e:	ae ec       	ldi	r26, 0xCE	; 206
     110:	b3 e0       	ldi	r27, 0x03	; 3
     112:	01 c0       	rjmp	.+2      	; 0x116 <.do_clear_bss_start>

00000114 <.do_clear_bss_loop>:
     114:	1d 92       	st	X+, r1

00000116 <.do_clear_bss_start>:
     116:	aa 3f       	cpi	r26, 0xFA	; 250
     118:	b1 07       	cpc	r27, r17
     11a:	e1 f7       	brne	.-8      	; 0x114 <.do_clear_bss_loop>
     11c:	0e 94 bf 00 	call	0x17e	; 0x17e <main>
     120:	0c 94 72 00 	jmp	0xe4	; 0xe4 <exit>

00000124 <adainit>:
   E08 : Short_Integer; pragma Import (Ada, E08, "avr__usart_E");
   E17 : Short_Integer; pragma Import (Ada, E17, "test_E");

   Is_Elaborated : Boolean := False;

   procedure adainit is
     124:	df 93       	push	r29
     126:	cf 93       	push	r28
     128:	cd b7       	in	r28, 0x3d	; 61
     12a:	de b7       	in	r29, 0x3e	; 62
   begin
      null;
     12c:	00 00       	nop

      E03 := E03 + 1;
     12e:	80 91 73 02 	lds	r24, 0x0273
     132:	90 91 74 02 	lds	r25, 0x0274
     136:	01 96       	adiw	r24, 0x01	; 1
     138:	90 93 74 02 	sts	0x0274, r25
     13c:	80 93 73 02 	sts	0x0273, r24
      E12 := E12 + 1;
     140:	80 91 8a 02 	lds	r24, 0x028A
     144:	90 91 8b 02 	lds	r25, 0x028B
     148:	01 96       	adiw	r24, 0x01	; 1
     14a:	90 93 8b 02 	sts	0x028B, r25
     14e:	80 93 8a 02 	sts	0x028A, r24
      E08 := E08 + 1;
     152:	80 91 9e 02 	lds	r24, 0x029E
     156:	90 91 9f 02 	lds	r25, 0x029F
     15a:	01 96       	adiw	r24, 0x01	; 1
     15c:	90 93 9f 02 	sts	0x029F, r25
     160:	80 93 9e 02 	sts	0x029E, r24
      E17 := E17 + 1;
     164:	80 91 c1 03 	lds	r24, 0x03C1
     168:	90 91 c2 03 	lds	r25, 0x03C2
     16c:	01 96       	adiw	r24, 0x01	; 1
     16e:	90 93 c2 03 	sts	0x03C2, r25
     172:	80 93 c1 03 	sts	0x03C1, r24
   end adainit;
     176:	00 00       	nop
     178:	cf 91       	pop	r28
     17a:	df 91       	pop	r29
     17c:	08 95       	ret

0000017e <main>:

   procedure Ada_Main_Program;
   pragma Import (Ada, Ada_Main_Program, "_ada_main");

   procedure main is
     17e:	df 93       	push	r29
     180:	cf 93       	push	r28
     182:	0f 92       	push	r0
     184:	0f 92       	push	r0
     186:	cd b7       	in	r28, 0x3d	; 61
     188:	de b7       	in	r29, 0x3e	; 62
      Ensure_Reference : aliased System.Address := Ada_Main_Program_Name'Address;
     18a:	84 e2       	ldi	r24, 0x24	; 36
     18c:	92 e0       	ldi	r25, 0x02	; 2
     18e:	9a 83       	std	Y+2, r25	; 0x02
     190:	89 83       	std	Y+1, r24	; 0x01
      pragma Volatile (Ensure_Reference);

   begin
      adainit;
     192:	0e 94 92 00 	call	0x124	; 0x124 <adainit>
      Ada_Main_Program;
     196:	0e 94 6f 17 	call	0x2ede	; 0x2ede <_ada_main>
   end;
     19a:	00 00       	nop
     19c:	0f 90       	pop	r0
     19e:	0f 90       	pop	r0
     1a0:	cf 91       	pop	r28
     1a2:	df 91       	pop	r29
     1a4:	08 95       	ret

000001a6 <avr__spare_typeIP>:
     1a6:	df 93       	push	r29
     1a8:	cf 93       	push	r28
     1aa:	00 d0       	rcall	.+0      	; 0x1ac <avr__spare_typeIP+0x6>
     1ac:	0f 92       	push	r0
     1ae:	cd b7       	in	r28, 0x3d	; 61
     1b0:	de b7       	in	r29, 0x3e	; 62
     1b2:	69 83       	std	Y+1, r22	; 0x01
     1b4:	7a 83       	std	Y+2, r23	; 0x02
     1b6:	8b 83       	std	Y+3, r24	; 0x03
     1b8:	9c 83       	std	Y+4, r25	; 0x04
     1ba:	0f 90       	pop	r0
     1bc:	0f 90       	pop	r0
     1be:	0f 90       	pop	r0
     1c0:	0f 90       	pop	r0
     1c2:	cf 91       	pop	r28
     1c4:	df 91       	pop	r29
     1c6:	08 95       	ret

000001c8 <avr__bit_array_typeIP>:
     1c8:	df 93       	push	r29
     1ca:	cf 93       	push	r28
     1cc:	00 d0       	rcall	.+0      	; 0x1ce <avr__bit_array_typeIP+0x6>
     1ce:	0f 92       	push	r0
     1d0:	cd b7       	in	r28, 0x3d	; 61
     1d2:	de b7       	in	r29, 0x3e	; 62
     1d4:	69 83       	std	Y+1, r22	; 0x01
     1d6:	7a 83       	std	Y+2, r23	; 0x02
     1d8:	8b 83       	std	Y+3, r24	; 0x03
     1da:	9c 83       	std	Y+4, r25	; 0x04
     1dc:	0f 90       	pop	r0
     1de:	0f 90       	pop	r0
     1e0:	0f 90       	pop	r0
     1e2:	0f 90       	pop	r0
     1e4:	cf 91       	pop	r28
     1e6:	df 91       	pop	r29
     1e8:	08 95       	ret

000001ea <avr__bit_array_8_bit_spare_7_bit_typeIP>:
     1ea:	df 93       	push	r29
     1ec:	cf 93       	push	r28
     1ee:	0f 92       	push	r0
     1f0:	cd b7       	in	r28, 0x3d	; 61
     1f2:	de b7       	in	r29, 0x3e	; 62
     1f4:	89 83       	std	Y+1, r24	; 0x01
     1f6:	89 81       	ldd	r24, Y+1	; 0x01
     1f8:	00 00       	nop
     1fa:	0f 90       	pop	r0
     1fc:	cf 91       	pop	r28
     1fe:	df 91       	pop	r29
     200:	08 95       	ret

00000202 <avr__byte_array_typeIP>:
     202:	df 93       	push	r29
     204:	cf 93       	push	r28
     206:	00 d0       	rcall	.+0      	; 0x208 <avr__byte_array_typeIP+0x6>
     208:	0f 92       	push	r0
     20a:	cd b7       	in	r28, 0x3d	; 61
     20c:	de b7       	in	r29, 0x3e	; 62
     20e:	69 83       	std	Y+1, r22	; 0x01
     210:	7a 83       	std	Y+2, r23	; 0x02
     212:	8b 83       	std	Y+3, r24	; 0x03
     214:	9c 83       	std	Y+4, r25	; 0x04
     216:	0f 90       	pop	r0
     218:	0f 90       	pop	r0
     21a:	0f 90       	pop	r0
     21c:	0f 90       	pop	r0
     21e:	cf 91       	pop	r28
     220:	df 91       	pop	r29
     222:	08 95       	ret

00000224 <avr__wait>:
-- =============================================================================
-- Package body AVR
-- =============================================================================
package body AVR is

   procedure Wait (Cycles : Long_Integer) is
     224:	df 93       	push	r29
     226:	cf 93       	push	r28
     228:	cd b7       	in	r28, 0x3d	; 61
     22a:	de b7       	in	r29, 0x3e	; 62
     22c:	64 97       	sbiw	r28, 0x14	; 20
     22e:	0f b6       	in	r0, 0x3f	; 63
     230:	f8 94       	cli
     232:	de bf       	out	0x3e, r29	; 62
     234:	0f be       	out	0x3f, r0	; 63
     236:	cd bf       	out	0x3d, r28	; 61
     238:	69 8b       	std	Y+17, r22	; 0x11
     23a:	7a 8b       	std	Y+18, r23	; 0x12
     23c:	8b 8b       	std	Y+19, r24	; 0x13
     23e:	9c 8b       	std	Y+20, r25	; 0x14
   begin
      for C1 in 1 .. Cycles loop
     240:	89 89       	ldd	r24, Y+17	; 0x11
     242:	9a 89       	ldd	r25, Y+18	; 0x12
     244:	ab 89       	ldd	r26, Y+19	; 0x13
     246:	bc 89       	ldd	r27, Y+20	; 0x14
     248:	89 87       	std	Y+9, r24	; 0x09
     24a:	9a 87       	std	Y+10, r25	; 0x0a
     24c:	ab 87       	std	Y+11, r26	; 0x0b
     24e:	bc 87       	std	Y+12, r27	; 0x0c
     250:	89 85       	ldd	r24, Y+9	; 0x09
     252:	9a 85       	ldd	r25, Y+10	; 0x0a
     254:	ab 85       	ldd	r26, Y+11	; 0x0b
     256:	bc 85       	ldd	r27, Y+12	; 0x0c
     258:	18 16       	cp	r1, r24
     25a:	19 06       	cpc	r1, r25
     25c:	1a 06       	cpc	r1, r26
     25e:	1b 06       	cpc	r1, r27
     260:	0c f0       	brlt	.+2      	; 0x264 <avr__wait+0x40>
     262:	55 c0       	rjmp	.+170    	; 0x30e <avr__wait+0xea>
     264:	81 e0       	ldi	r24, 0x01	; 1
     266:	90 e0       	ldi	r25, 0x00	; 0
     268:	a0 e0       	ldi	r26, 0x00	; 0
     26a:	b0 e0       	ldi	r27, 0x00	; 0
     26c:	89 83       	std	Y+1, r24	; 0x01
     26e:	9a 83       	std	Y+2, r25	; 0x02
     270:	ab 83       	std	Y+3, r26	; 0x03
     272:	bc 83       	std	Y+4, r27	; 0x04
         for C2 in 1 .. Cycles loop
     274:	89 89       	ldd	r24, Y+17	; 0x11
     276:	9a 89       	ldd	r25, Y+18	; 0x12
     278:	ab 89       	ldd	r26, Y+19	; 0x13
     27a:	bc 89       	ldd	r27, Y+20	; 0x14
     27c:	8d 87       	std	Y+13, r24	; 0x0d
     27e:	9e 87       	std	Y+14, r25	; 0x0e
     280:	af 87       	std	Y+15, r26	; 0x0f
     282:	b8 8b       	std	Y+16, r27	; 0x10
     284:	8d 85       	ldd	r24, Y+13	; 0x0d
     286:	9e 85       	ldd	r25, Y+14	; 0x0e
     288:	af 85       	ldd	r26, Y+15	; 0x0f
     28a:	b8 89       	ldd	r27, Y+16	; 0x10
     28c:	18 16       	cp	r1, r24
     28e:	19 06       	cpc	r1, r25
     290:	1a 06       	cpc	r1, r26
     292:	1b 06       	cpc	r1, r27
     294:	1c f5       	brge	.+70     	; 0x2dc <avr__wait+0xb8>
     296:	81 e0       	ldi	r24, 0x01	; 1
     298:	90 e0       	ldi	r25, 0x00	; 0
     29a:	a0 e0       	ldi	r26, 0x00	; 0
     29c:	b0 e0       	ldi	r27, 0x00	; 0
     29e:	8d 83       	std	Y+5, r24	; 0x05
     2a0:	9e 83       	std	Y+6, r25	; 0x06
     2a2:	af 83       	std	Y+7, r26	; 0x07
     2a4:	b8 87       	std	Y+8, r27	; 0x08
            null;
     2a6:	00 00       	nop
package body AVR is

   procedure Wait (Cycles : Long_Integer) is
   begin
      for C1 in 1 .. Cycles loop
         for C2 in 1 .. Cycles loop
     2a8:	2d 81       	ldd	r18, Y+5	; 0x05
     2aa:	3e 81       	ldd	r19, Y+6	; 0x06
     2ac:	4f 81       	ldd	r20, Y+7	; 0x07
     2ae:	58 85       	ldd	r21, Y+8	; 0x08
     2b0:	8d 85       	ldd	r24, Y+13	; 0x0d
     2b2:	9e 85       	ldd	r25, Y+14	; 0x0e
     2b4:	af 85       	ldd	r26, Y+15	; 0x0f
     2b6:	b8 89       	ldd	r27, Y+16	; 0x10
     2b8:	28 17       	cp	r18, r24
     2ba:	39 07       	cpc	r19, r25
     2bc:	4a 07       	cpc	r20, r26
     2be:	5b 07       	cpc	r21, r27
     2c0:	69 f0       	breq	.+26     	; 0x2dc <avr__wait+0xb8>
     2c2:	8d 81       	ldd	r24, Y+5	; 0x05
     2c4:	9e 81       	ldd	r25, Y+6	; 0x06
     2c6:	af 81       	ldd	r26, Y+7	; 0x07
     2c8:	b8 85       	ldd	r27, Y+8	; 0x08
     2ca:	01 96       	adiw	r24, 0x01	; 1
     2cc:	a1 1d       	adc	r26, r1
     2ce:	b1 1d       	adc	r27, r1
     2d0:	8d 83       	std	Y+5, r24	; 0x05
     2d2:	9e 83       	std	Y+6, r25	; 0x06
     2d4:	af 83       	std	Y+7, r26	; 0x07
     2d6:	b8 87       	std	Y+8, r27	; 0x08
            null;
         end loop;
     2d8:	00 00       	nop

   procedure Wait (Cycles : Long_Integer) is
   begin
      for C1 in 1 .. Cycles loop
         for C2 in 1 .. Cycles loop
            null;
     2da:	e5 cf       	rjmp	.-54     	; 0x2a6 <avr__wait+0x82>
-- =============================================================================
package body AVR is

   procedure Wait (Cycles : Long_Integer) is
   begin
      for C1 in 1 .. Cycles loop
     2dc:	29 81       	ldd	r18, Y+1	; 0x01
     2de:	3a 81       	ldd	r19, Y+2	; 0x02
     2e0:	4b 81       	ldd	r20, Y+3	; 0x03
     2e2:	5c 81       	ldd	r21, Y+4	; 0x04
     2e4:	89 85       	ldd	r24, Y+9	; 0x09
     2e6:	9a 85       	ldd	r25, Y+10	; 0x0a
     2e8:	ab 85       	ldd	r26, Y+11	; 0x0b
     2ea:	bc 85       	ldd	r27, Y+12	; 0x0c
     2ec:	28 17       	cp	r18, r24
     2ee:	39 07       	cpc	r19, r25
     2f0:	4a 07       	cpc	r20, r26
     2f2:	5b 07       	cpc	r21, r27
     2f4:	61 f0       	breq	.+24     	; 0x30e <avr__wait+0xea>
     2f6:	89 81       	ldd	r24, Y+1	; 0x01
     2f8:	9a 81       	ldd	r25, Y+2	; 0x02
     2fa:	ab 81       	ldd	r26, Y+3	; 0x03
     2fc:	bc 81       	ldd	r27, Y+4	; 0x04
     2fe:	01 96       	adiw	r24, 0x01	; 1
     300:	a1 1d       	adc	r26, r1
     302:	b1 1d       	adc	r27, r1
     304:	89 83       	std	Y+1, r24	; 0x01
     306:	9a 83       	std	Y+2, r25	; 0x02
     308:	ab 83       	std	Y+3, r26	; 0x03
     30a:	bc 83       	std	Y+4, r27	; 0x04
         for C2 in 1 .. Cycles loop
            null;
         end loop;
      end loop;
     30c:	b3 cf       	rjmp	.-154    	; 0x274 <avr__wait+0x50>
   end Wait;
     30e:	00 00       	nop
     310:	64 96       	adiw	r28, 0x14	; 20
     312:	0f b6       	in	r0, 0x3f	; 63
     314:	f8 94       	cli
     316:	de bf       	out	0x3e, r29	; 62
     318:	0f be       	out	0x3f, r0	; 63
     31a:	cd bf       	out	0x3d, r28	; 61
     31c:	cf 91       	pop	r28
     31e:	df 91       	pop	r29
     320:	08 95       	ret

00000322 <avr__mcu__on_chip_debug_register_typeIP>:
     322:	df 93       	push	r29
     324:	cf 93       	push	r28
     326:	0f 92       	push	r0
     328:	cd b7       	in	r28, 0x3d	; 61
     32a:	de b7       	in	r29, 0x3e	; 62
     32c:	89 83       	std	Y+1, r24	; 0x01
     32e:	89 81       	ldd	r24, Y+1	; 0x01
     330:	00 00       	nop
     332:	0f 90       	pop	r0
     334:	cf 91       	pop	r28
     336:	df 91       	pop	r29
     338:	08 95       	ret

0000033a <avr__mcu__mcu_status_register_typeIP>:
     33a:	df 93       	push	r29
     33c:	cf 93       	push	r28
     33e:	0f 92       	push	r0
     340:	cd b7       	in	r28, 0x3d	; 61
     342:	de b7       	in	r29, 0x3e	; 62
     344:	89 83       	std	Y+1, r24	; 0x01
     346:	89 81       	ldd	r24, Y+1	; 0x01
     348:	00 00       	nop
     34a:	0f 90       	pop	r0
     34c:	cf 91       	pop	r28
     34e:	df 91       	pop	r29
     350:	08 95       	ret

00000352 <avr__mcu__mcu_control_register_typeIP>:
     352:	df 93       	push	r29
     354:	cf 93       	push	r28
     356:	0f 92       	push	r0
     358:	cd b7       	in	r28, 0x3d	; 61
     35a:	de b7       	in	r29, 0x3e	; 62
     35c:	89 83       	std	Y+1, r24	; 0x01
     35e:	89 81       	ldd	r24, Y+1	; 0x01
     360:	00 00       	nop
     362:	0f 90       	pop	r0
     364:	cf 91       	pop	r28
     366:	df 91       	pop	r29
     368:	08 95       	ret

0000036a <avr__mcu__avr_status_register_typeIP>:
     36a:	df 93       	push	r29
     36c:	cf 93       	push	r28
     36e:	0f 92       	push	r0
     370:	cd b7       	in	r28, 0x3d	; 61
     372:	de b7       	in	r29, 0x3e	; 62
     374:	89 83       	std	Y+1, r24	; 0x01
     376:	89 81       	ldd	r24, Y+1	; 0x01
     378:	00 00       	nop
     37a:	0f 90       	pop	r0
     37c:	cf 91       	pop	r28
     37e:	df 91       	pop	r29
     380:	08 95       	ret

00000382 <avr__mcu__clock_prescale_register_typeIP>:
     382:	df 93       	push	r29
     384:	cf 93       	push	r28
     386:	0f 92       	push	r0
     388:	cd b7       	in	r28, 0x3d	; 61
     38a:	de b7       	in	r29, 0x3e	; 62
     38c:	89 83       	std	Y+1, r24	; 0x01
     38e:	89 81       	ldd	r24, Y+1	; 0x01
     390:	00 00       	nop
     392:	0f 90       	pop	r0
     394:	cf 91       	pop	r28
     396:	df 91       	pop	r29
     398:	08 95       	ret

0000039a <image__string_u8IP>:
     39a:	df 93       	push	r29
     39c:	cf 93       	push	r28
     39e:	00 d0       	rcall	.+0      	; 0x3a0 <image__string_u8IP+0x6>
     3a0:	0f 92       	push	r0
     3a2:	cd b7       	in	r28, 0x3d	; 61
     3a4:	de b7       	in	r29, 0x3e	; 62
     3a6:	69 83       	std	Y+1, r22	; 0x01
     3a8:	7a 83       	std	Y+2, r23	; 0x02
     3aa:	8b 83       	std	Y+3, r24	; 0x03
     3ac:	9c 83       	std	Y+4, r25	; 0x04
     3ae:	0f 90       	pop	r0
     3b0:	0f 90       	pop	r0
     3b2:	0f 90       	pop	r0
     3b4:	0f 90       	pop	r0
     3b6:	cf 91       	pop	r28
     3b8:	df 91       	pop	r29
     3ba:	08 95       	ret

000003bc <image__u8_img_right>:
-- =============================================================================
-- Package body AVR.IMAGE
-- =============================================================================
package body IMAGE is

   procedure U8_Img_Right (Data : Unsigned_8; Target : out String_U8) is
     3bc:	df 93       	push	r29
     3be:	cf 93       	push	r28
     3c0:	cd b7       	in	r28, 0x3d	; 61
     3c2:	de b7       	in	r29, 0x3e	; 62
     3c4:	29 97       	sbiw	r28, 0x09	; 9
     3c6:	0f b6       	in	r0, 0x3f	; 63
     3c8:	f8 94       	cli
     3ca:	de bf       	out	0x3e, r29	; 62
     3cc:	0f be       	out	0x3f, r0	; 63
     3ce:	cd bf       	out	0x3d, r28	; 61
     3d0:	8d 83       	std	Y+5, r24	; 0x05
     3d2:	4e 83       	std	Y+6, r20	; 0x06
     3d4:	5f 83       	std	Y+7, r21	; 0x07
     3d6:	68 87       	std	Y+8, r22	; 0x08
     3d8:	79 87       	std	Y+9, r23	; 0x09
     3da:	88 85       	ldd	r24, Y+8	; 0x08
     3dc:	99 85       	ldd	r25, Y+9	; 0x09
     3de:	fc 01       	movw	r30, r24
     3e0:	80 81       	ld	r24, Z
     3e2:	28 2f       	mov	r18, r24
     3e4:	30 e0       	ldi	r19, 0x00	; 0
      D : Unsigned_8 := Data;
     3e6:	8d 81       	ldd	r24, Y+5	; 0x05
     3e8:	89 83       	std	Y+1, r24	; 0x01
   begin
      for Index in Target'Range loop
     3ea:	88 85       	ldd	r24, Y+8	; 0x08
     3ec:	99 85       	ldd	r25, Y+9	; 0x09
     3ee:	fc 01       	movw	r30, r24
     3f0:	80 81       	ld	r24, Z
     3f2:	8b 83       	std	Y+3, r24	; 0x03
     3f4:	88 85       	ldd	r24, Y+8	; 0x08
     3f6:	99 85       	ldd	r25, Y+9	; 0x09
     3f8:	fc 01       	movw	r30, r24
     3fa:	81 81       	ldd	r24, Z+1	; 0x01
     3fc:	8c 83       	std	Y+4, r24	; 0x04
     3fe:	9b 81       	ldd	r25, Y+3	; 0x03
     400:	8c 81       	ldd	r24, Y+4	; 0x04
     402:	89 17       	cp	r24, r25
     404:	b0 f0       	brcs	.+44     	; 0x432 <image__u8_img_right+0x76>
     406:	8b 81       	ldd	r24, Y+3	; 0x03
     408:	8a 83       	std	Y+2, r24	; 0x02
         Target (Index) := ' ';
     40a:	4e 81       	ldd	r20, Y+6	; 0x06
     40c:	5f 81       	ldd	r21, Y+7	; 0x07
     40e:	8a 81       	ldd	r24, Y+2	; 0x02
     410:	88 2f       	mov	r24, r24
     412:	90 e0       	ldi	r25, 0x00	; 0
     414:	82 1b       	sub	r24, r18
     416:	93 0b       	sbc	r25, r19
     418:	84 0f       	add	r24, r20
     41a:	95 1f       	adc	r25, r21
     41c:	40 e2       	ldi	r20, 0x20	; 32
     41e:	fc 01       	movw	r30, r24
     420:	40 83       	st	Z, r20
package body IMAGE is

   procedure U8_Img_Right (Data : Unsigned_8; Target : out String_U8) is
      D : Unsigned_8 := Data;
   begin
      for Index in Target'Range loop
     422:	9a 81       	ldd	r25, Y+2	; 0x02
     424:	8c 81       	ldd	r24, Y+4	; 0x04
     426:	98 17       	cp	r25, r24
     428:	21 f0       	breq	.+8      	; 0x432 <image__u8_img_right+0x76>
     42a:	8a 81       	ldd	r24, Y+2	; 0x02
     42c:	8f 5f       	subi	r24, 0xFF	; 255
     42e:	8a 83       	std	Y+2, r24	; 0x02
         Target (Index) := ' ';
      end loop;
     430:	ec cf       	rjmp	.-40     	; 0x40a <image__u8_img_right+0x4e>

      if D >= 100 then
     432:	89 81       	ldd	r24, Y+1	; 0x01
     434:	84 36       	cpi	r24, 0x64	; 100
     436:	48 f1       	brcs	.+82     	; 0x48a <image__u8_img_right+0xce>
         Target (Target'First) := Character'Val (48 + (D / 100));
     438:	88 85       	ldd	r24, Y+8	; 0x08
     43a:	99 85       	ldd	r25, Y+9	; 0x09
     43c:	fc 01       	movw	r30, r24
     43e:	40 81       	ld	r20, Z
     440:	88 85       	ldd	r24, Y+8	; 0x08
     442:	99 85       	ldd	r25, Y+9	; 0x09
     444:	fc 01       	movw	r30, r24
     446:	81 81       	ldd	r24, Z+1	; 0x01
     448:	84 17       	cp	r24, r20
     44a:	08 f4       	brcc	.+2      	; 0x44e <image__u8_img_right+0x92>
     44c:	cb c0       	rjmp	.+406    	; 0x5e4 <image__u8_img_right+0x228>
     44e:	4e 81       	ldd	r20, Y+6	; 0x06
     450:	5f 81       	ldd	r21, Y+7	; 0x07
     452:	88 85       	ldd	r24, Y+8	; 0x08
     454:	99 85       	ldd	r25, Y+9	; 0x09
     456:	fc 01       	movw	r30, r24
     458:	80 81       	ld	r24, Z
     45a:	e8 2f       	mov	r30, r24
     45c:	f0 e0       	ldi	r31, 0x00	; 0
     45e:	89 81       	ldd	r24, Y+1	; 0x01
     460:	94 e6       	ldi	r25, 0x64	; 100
     462:	69 2f       	mov	r22, r25
     464:	0e 94 c4 17 	call	0x2f88	; 0x2f88 <__udivmodqi4>
     468:	68 2f       	mov	r22, r24
     46a:	60 5d       	subi	r22, 0xD0	; 208
     46c:	cf 01       	movw	r24, r30
     46e:	82 1b       	sub	r24, r18
     470:	93 0b       	sbc	r25, r19
     472:	84 0f       	add	r24, r20
     474:	95 1f       	adc	r25, r21
     476:	fc 01       	movw	r30, r24
     478:	60 83       	st	Z, r22
         D := D rem 100;
     47a:	89 81       	ldd	r24, Y+1	; 0x01
     47c:	94 e6       	ldi	r25, 0x64	; 100
     47e:	69 2f       	mov	r22, r25
     480:	0e 94 c4 17 	call	0x2f88	; 0x2f88 <__udivmodqi4>
     484:	89 2f       	mov	r24, r25
     486:	89 83       	std	Y+1, r24	; 0x01
     488:	1a c0       	rjmp	.+52     	; 0x4be <image__u8_img_right+0x102>
      else
         Target (Target'First) := ' ';
     48a:	88 85       	ldd	r24, Y+8	; 0x08
     48c:	99 85       	ldd	r25, Y+9	; 0x09
     48e:	fc 01       	movw	r30, r24
     490:	40 81       	ld	r20, Z
     492:	88 85       	ldd	r24, Y+8	; 0x08
     494:	99 85       	ldd	r25, Y+9	; 0x09
     496:	fc 01       	movw	r30, r24
     498:	81 81       	ldd	r24, Z+1	; 0x01
     49a:	84 17       	cp	r24, r20
     49c:	08 f4       	brcc	.+2      	; 0x4a0 <image__u8_img_right+0xe4>
     49e:	a2 c0       	rjmp	.+324    	; 0x5e4 <image__u8_img_right+0x228>
     4a0:	4e 81       	ldd	r20, Y+6	; 0x06
     4a2:	5f 81       	ldd	r21, Y+7	; 0x07
     4a4:	88 85       	ldd	r24, Y+8	; 0x08
     4a6:	99 85       	ldd	r25, Y+9	; 0x09
     4a8:	fc 01       	movw	r30, r24
     4aa:	80 81       	ld	r24, Z
     4ac:	88 2f       	mov	r24, r24
     4ae:	90 e0       	ldi	r25, 0x00	; 0
     4b0:	82 1b       	sub	r24, r18
     4b2:	93 0b       	sbc	r25, r19
     4b4:	84 0f       	add	r24, r20
     4b6:	95 1f       	adc	r25, r21
     4b8:	40 e2       	ldi	r20, 0x20	; 32
     4ba:	fc 01       	movw	r30, r24
     4bc:	40 83       	st	Z, r20
      end if;

      if D >= 10 or else Data >= 100 then
     4be:	89 81       	ldd	r24, Y+1	; 0x01
     4c0:	8a 30       	cpi	r24, 0x0A	; 10
     4c2:	18 f4       	brcc	.+6      	; 0x4ca <image__u8_img_right+0x10e>
     4c4:	8d 81       	ldd	r24, Y+5	; 0x05
     4c6:	84 36       	cpi	r24, 0x64	; 100
     4c8:	90 f1       	brcs	.+100    	; 0x52e <image__u8_img_right+0x172>
         Target (Target'First + 1) := Character'Val (48 + (D / 10));
     4ca:	88 85       	ldd	r24, Y+8	; 0x08
     4cc:	99 85       	ldd	r25, Y+9	; 0x09
     4ce:	fc 01       	movw	r30, r24
     4d0:	80 81       	ld	r24, Z
     4d2:	48 2f       	mov	r20, r24
     4d4:	4f 5f       	subi	r20, 0xFF	; 255
     4d6:	88 85       	ldd	r24, Y+8	; 0x08
     4d8:	99 85       	ldd	r25, Y+9	; 0x09
     4da:	fc 01       	movw	r30, r24
     4dc:	80 81       	ld	r24, Z
     4de:	48 17       	cp	r20, r24
     4e0:	08 f4       	brcc	.+2      	; 0x4e4 <image__u8_img_right+0x128>
     4e2:	80 c0       	rjmp	.+256    	; 0x5e4 <image__u8_img_right+0x228>
     4e4:	88 85       	ldd	r24, Y+8	; 0x08
     4e6:	99 85       	ldd	r25, Y+9	; 0x09
     4e8:	fc 01       	movw	r30, r24
     4ea:	80 81       	ld	r24, Z
     4ec:	48 2f       	mov	r20, r24
     4ee:	4f 5f       	subi	r20, 0xFF	; 255
     4f0:	88 85       	ldd	r24, Y+8	; 0x08
     4f2:	99 85       	ldd	r25, Y+9	; 0x09
     4f4:	fc 01       	movw	r30, r24
     4f6:	81 81       	ldd	r24, Z+1	; 0x01
     4f8:	84 17       	cp	r24, r20
     4fa:	08 f4       	brcc	.+2      	; 0x4fe <image__u8_img_right+0x142>
     4fc:	73 c0       	rjmp	.+230    	; 0x5e4 <image__u8_img_right+0x228>
     4fe:	4e 81       	ldd	r20, Y+6	; 0x06
     500:	5f 81       	ldd	r21, Y+7	; 0x07
     502:	88 85       	ldd	r24, Y+8	; 0x08
     504:	99 85       	ldd	r25, Y+9	; 0x09
     506:	fc 01       	movw	r30, r24
     508:	80 81       	ld	r24, Z
     50a:	8f 5f       	subi	r24, 0xFF	; 255
     50c:	e8 2f       	mov	r30, r24
     50e:	f0 e0       	ldi	r31, 0x00	; 0
     510:	89 81       	ldd	r24, Y+1	; 0x01
     512:	9a e0       	ldi	r25, 0x0A	; 10
     514:	69 2f       	mov	r22, r25
     516:	0e 94 c4 17 	call	0x2f88	; 0x2f88 <__udivmodqi4>
     51a:	68 2f       	mov	r22, r24
     51c:	60 5d       	subi	r22, 0xD0	; 208
     51e:	cf 01       	movw	r24, r30
     520:	82 1b       	sub	r24, r18
     522:	93 0b       	sbc	r25, r19
     524:	84 0f       	add	r24, r20
     526:	95 1f       	adc	r25, r21
     528:	fc 01       	movw	r30, r24
     52a:	60 83       	st	Z, r22
     52c:	2a c0       	rjmp	.+84     	; 0x582 <image__u8_img_right+0x1c6>
      else
         Target (Target'First + 1) := ' ';
     52e:	88 85       	ldd	r24, Y+8	; 0x08
     530:	99 85       	ldd	r25, Y+9	; 0x09
     532:	fc 01       	movw	r30, r24
     534:	80 81       	ld	r24, Z
     536:	48 2f       	mov	r20, r24
     538:	4f 5f       	subi	r20, 0xFF	; 255
     53a:	88 85       	ldd	r24, Y+8	; 0x08
     53c:	99 85       	ldd	r25, Y+9	; 0x09
     53e:	fc 01       	movw	r30, r24
     540:	80 81       	ld	r24, Z
     542:	48 17       	cp	r20, r24
     544:	08 f4       	brcc	.+2      	; 0x548 <image__u8_img_right+0x18c>
     546:	4e c0       	rjmp	.+156    	; 0x5e4 <image__u8_img_right+0x228>
     548:	88 85       	ldd	r24, Y+8	; 0x08
     54a:	99 85       	ldd	r25, Y+9	; 0x09
     54c:	fc 01       	movw	r30, r24
     54e:	80 81       	ld	r24, Z
     550:	48 2f       	mov	r20, r24
     552:	4f 5f       	subi	r20, 0xFF	; 255
     554:	88 85       	ldd	r24, Y+8	; 0x08
     556:	99 85       	ldd	r25, Y+9	; 0x09
     558:	fc 01       	movw	r30, r24
     55a:	81 81       	ldd	r24, Z+1	; 0x01
     55c:	84 17       	cp	r24, r20
     55e:	08 f4       	brcc	.+2      	; 0x562 <image__u8_img_right+0x1a6>
     560:	41 c0       	rjmp	.+130    	; 0x5e4 <image__u8_img_right+0x228>
     562:	4e 81       	ldd	r20, Y+6	; 0x06
     564:	5f 81       	ldd	r21, Y+7	; 0x07
     566:	88 85       	ldd	r24, Y+8	; 0x08
     568:	99 85       	ldd	r25, Y+9	; 0x09
     56a:	fc 01       	movw	r30, r24
     56c:	80 81       	ld	r24, Z
     56e:	8f 5f       	subi	r24, 0xFF	; 255
     570:	88 2f       	mov	r24, r24
     572:	90 e0       	ldi	r25, 0x00	; 0
     574:	82 1b       	sub	r24, r18
     576:	93 0b       	sbc	r25, r19
     578:	84 0f       	add	r24, r20
     57a:	95 1f       	adc	r25, r21
     57c:	40 e2       	ldi	r20, 0x20	; 32
     57e:	fc 01       	movw	r30, r24
     580:	40 83       	st	Z, r20
      end if;

      Target (Target'First + 2)  := Character'Val (48 + (D rem 10));
     582:	88 85       	ldd	r24, Y+8	; 0x08
     584:	99 85       	ldd	r25, Y+9	; 0x09
     586:	fc 01       	movw	r30, r24
     588:	80 81       	ld	r24, Z
     58a:	48 2f       	mov	r20, r24
     58c:	4e 5f       	subi	r20, 0xFE	; 254
     58e:	88 85       	ldd	r24, Y+8	; 0x08
     590:	99 85       	ldd	r25, Y+9	; 0x09
     592:	fc 01       	movw	r30, r24
     594:	80 81       	ld	r24, Z
     596:	48 17       	cp	r20, r24
     598:	28 f1       	brcs	.+74     	; 0x5e4 <image__u8_img_right+0x228>
     59a:	88 85       	ldd	r24, Y+8	; 0x08
     59c:	99 85       	ldd	r25, Y+9	; 0x09
     59e:	fc 01       	movw	r30, r24
     5a0:	80 81       	ld	r24, Z
     5a2:	48 2f       	mov	r20, r24
     5a4:	4e 5f       	subi	r20, 0xFE	; 254
     5a6:	88 85       	ldd	r24, Y+8	; 0x08
     5a8:	99 85       	ldd	r25, Y+9	; 0x09
     5aa:	fc 01       	movw	r30, r24
     5ac:	81 81       	ldd	r24, Z+1	; 0x01
     5ae:	84 17       	cp	r24, r20
     5b0:	c8 f0       	brcs	.+50     	; 0x5e4 <image__u8_img_right+0x228>
     5b2:	4e 81       	ldd	r20, Y+6	; 0x06
     5b4:	5f 81       	ldd	r21, Y+7	; 0x07
     5b6:	88 85       	ldd	r24, Y+8	; 0x08
     5b8:	99 85       	ldd	r25, Y+9	; 0x09
     5ba:	fc 01       	movw	r30, r24
     5bc:	80 81       	ld	r24, Z
     5be:	8e 5f       	subi	r24, 0xFE	; 254
     5c0:	e8 2f       	mov	r30, r24
     5c2:	f0 e0       	ldi	r31, 0x00	; 0
     5c4:	89 81       	ldd	r24, Y+1	; 0x01
     5c6:	9a e0       	ldi	r25, 0x0A	; 10
     5c8:	69 2f       	mov	r22, r25
     5ca:	0e 94 c4 17 	call	0x2f88	; 0x2f88 <__udivmodqi4>
     5ce:	89 2f       	mov	r24, r25
     5d0:	68 2f       	mov	r22, r24
     5d2:	60 5d       	subi	r22, 0xD0	; 208
     5d4:	cf 01       	movw	r24, r30
     5d6:	82 1b       	sub	r24, r18
     5d8:	93 0b       	sbc	r25, r19
     5da:	84 0f       	add	r24, r20
     5dc:	95 1f       	adc	r25, r21
     5de:	fc 01       	movw	r30, r24
     5e0:	60 83       	st	Z, r22
   exception
      when others => null;
     5e2:	01 c0       	rjmp	.+2      	; 0x5e6 <image__u8_img_right+0x22a>
     5e4:	00 00       	nop
   end U8_Img_Right;
     5e6:	00 00       	nop
     5e8:	29 96       	adiw	r28, 0x09	; 9
     5ea:	0f b6       	in	r0, 0x3f	; 63
     5ec:	f8 94       	cli
     5ee:	de bf       	out	0x3e, r29	; 62
     5f0:	0f be       	out	0x3f, r0	; 63
     5f2:	cd bf       	out	0x3d, r28	; 61
     5f4:	cf 91       	pop	r28
     5f6:	df 91       	pop	r29
     5f8:	08 95       	ret

000005fa <image__unsigned_8_to_string_simon>:

   function Unsigned_8_To_String_Simon (Input : Unsigned_8) return String_3 is
     5fa:	df 93       	push	r29
     5fc:	cf 93       	push	r28
     5fe:	cd b7       	in	r28, 0x3d	; 61
     600:	de b7       	in	r29, 0x3e	; 62
     602:	2a 97       	sbiw	r28, 0x0a	; 10
     604:	0f b6       	in	r0, 0x3f	; 63
     606:	f8 94       	cli
     608:	de bf       	out	0x3e, r29	; 62
     60a:	0f be       	out	0x3f, r0	; 63
     60c:	cd bf       	out	0x3d, r28	; 61
     60e:	8a 87       	std	Y+10, r24	; 0x0a
      Result : String_3 := (others => ' ');
     610:	ce 01       	movw	r24, r28
     612:	07 96       	adiw	r24, 0x07	; 7
     614:	6d e8       	ldi	r22, 0x8D	; 141
     616:	72 e0       	ldi	r23, 0x02	; 2
     618:	e3 e0       	ldi	r30, 0x03	; 3
     61a:	db 01       	movw	r26, r22
     61c:	0c 90       	ld	r0, X
     61e:	6f 5f       	subi	r22, 0xFF	; 255
     620:	7f 4f       	sbci	r23, 0xFF	; 255
     622:	dc 01       	movw	r26, r24
     624:	0c 92       	st	X, r0
     626:	01 96       	adiw	r24, 0x01	; 1
     628:	e1 50       	subi	r30, 0x01	; 1
     62a:	ee 23       	and	r30, r30
     62c:	b1 f7       	brne	.-20     	; 0x61a <image__unsigned_8_to_string_simon+0x20>
      Digit : Unsigned_8;
      Rest_Of_Number : Unsigned_8;
   begin
      Digit := Input mod 10;
     62e:	8a 85       	ldd	r24, Y+10	; 0x0a
     630:	9a e0       	ldi	r25, 0x0A	; 10
     632:	69 2f       	mov	r22, r25
     634:	0e 94 c4 17 	call	0x2f88	; 0x2f88 <__udivmodqi4>
     638:	89 2f       	mov	r24, r25
     63a:	89 83       	std	Y+1, r24	; 0x01
      Rest_Of_Number := Input / 10;
     63c:	8a 85       	ldd	r24, Y+10	; 0x0a
     63e:	9a e0       	ldi	r25, 0x0A	; 10
     640:	69 2f       	mov	r22, r25
     642:	0e 94 c4 17 	call	0x2f88	; 0x2f88 <__udivmodqi4>
     646:	8a 83       	std	Y+2, r24	; 0x02

      for J in reverse Result'Range loop
     648:	83 e0       	ldi	r24, 0x03	; 3
     64a:	8b 83       	std	Y+3, r24	; 0x03
     64c:	8b 81       	ldd	r24, Y+3	; 0x03
     64e:	88 23       	and	r24, r24
     650:	71 f1       	breq	.+92     	; 0x6ae <image__unsigned_8_to_string_simon+0xb4>
         if Digit /= 0
     652:	89 81       	ldd	r24, Y+1	; 0x01
     654:	88 23       	and	r24, r24
     656:	31 f4       	brne	.+12     	; 0x664 <image__unsigned_8_to_string_simon+0x6a>
           or else Rest_Of_Number /= 0
     658:	8a 81       	ldd	r24, Y+2	; 0x02
     65a:	88 23       	and	r24, r24
     65c:	19 f4       	brne	.+6      	; 0x664 <image__unsigned_8_to_string_simon+0x6a>
           or else J = Result'Last then
     65e:	8b 81       	ldd	r24, Y+3	; 0x03
     660:	83 30       	cpi	r24, 0x03	; 3
     662:	a1 f4       	brne	.+40     	; 0x68c <image__unsigned_8_to_string_simon+0x92>
            Result (J)
              := Character'Val (Character'Pos ('0') + Integer (Digit));
     664:	89 81       	ldd	r24, Y+1	; 0x01
     666:	88 2f       	mov	r24, r24
     668:	90 e0       	ldi	r25, 0x00	; 0
     66a:	c0 96       	adiw	r24, 0x30	; 48
     66c:	99 23       	and	r25, r25
     66e:	84 f1       	brlt	.+96     	; 0x6d0 <image__unsigned_8_to_string_simon+0xd6>
     670:	8f 3f       	cpi	r24, 0xFF	; 255
     672:	91 05       	cpc	r25, r1
     674:	09 f0       	breq	.+2      	; 0x678 <image__unsigned_8_to_string_simon+0x7e>
     676:	64 f5       	brge	.+88     	; 0x6d0 <image__unsigned_8_to_string_simon+0xd6>
     678:	6b 81       	ldd	r22, Y+3	; 0x03
     67a:	66 2f       	mov	r22, r22
     67c:	70 e0       	ldi	r23, 0x00	; 0
     67e:	e8 2f       	mov	r30, r24
     680:	ce 01       	movw	r24, r28
     682:	06 96       	adiw	r24, 0x06	; 6
     684:	86 0f       	add	r24, r22
     686:	97 1f       	adc	r25, r23
     688:	dc 01       	movw	r26, r24
     68a:	ec 93       	st	X, r30
         end if;
         Digit := Rest_Of_Number mod 10;
     68c:	8a 81       	ldd	r24, Y+2	; 0x02
     68e:	9a e0       	ldi	r25, 0x0A	; 10
     690:	69 2f       	mov	r22, r25
     692:	0e 94 c4 17 	call	0x2f88	; 0x2f88 <__udivmodqi4>
     696:	89 2f       	mov	r24, r25
     698:	89 83       	std	Y+1, r24	; 0x01
         Rest_Of_Number := Rest_Of_Number / 10;
     69a:	8a 81       	ldd	r24, Y+2	; 0x02
     69c:	9a e0       	ldi	r25, 0x0A	; 10
     69e:	69 2f       	mov	r22, r25
     6a0:	0e 94 c4 17 	call	0x2f88	; 0x2f88 <__udivmodqi4>
     6a4:	8a 83       	std	Y+2, r24	; 0x02
      Rest_Of_Number : Unsigned_8;
   begin
      Digit := Input mod 10;
      Rest_Of_Number := Input / 10;

      for J in reverse Result'Range loop
     6a6:	8b 81       	ldd	r24, Y+3	; 0x03
     6a8:	81 50       	subi	r24, 0x01	; 1
     6aa:	8b 83       	std	Y+3, r24	; 0x03
              := Character'Val (Character'Pos ('0') + Integer (Digit));
         end if;
         Digit := Rest_Of_Number mod 10;
         Rest_Of_Number := Rest_Of_Number / 10;
         -- could exit when Rest_Of_Number = 0
      end loop;
     6ac:	cf cf       	rjmp	.-98     	; 0x64c <image__unsigned_8_to_string_simon+0x52>
      return Result;
     6ae:	ce 01       	movw	r24, r28
     6b0:	04 96       	adiw	r24, 0x04	; 4
     6b2:	be 01       	movw	r22, r28
     6b4:	69 5f       	subi	r22, 0xF9	; 249
     6b6:	7f 4f       	sbci	r23, 0xFF	; 255
     6b8:	e3 e0       	ldi	r30, 0x03	; 3
     6ba:	db 01       	movw	r26, r22
     6bc:	0c 90       	ld	r0, X
     6be:	6f 5f       	subi	r22, 0xFF	; 255
     6c0:	7f 4f       	sbci	r23, 0xFF	; 255
     6c2:	dc 01       	movw	r26, r24
     6c4:	0c 92       	st	X, r0
     6c6:	01 96       	adiw	r24, 0x01	; 1
     6c8:	e1 50       	subi	r30, 0x01	; 1
     6ca:	ee 23       	and	r30, r30
     6cc:	b1 f7       	brne	.-20     	; 0x6ba <image__unsigned_8_to_string_simon+0xc0>
     6ce:	0f c0       	rjmp	.+30     	; 0x6ee <image__unsigned_8_to_string_simon+0xf4>
   exception
      when others => return "   ";
     6d0:	ce 01       	movw	r24, r28
     6d2:	04 96       	adiw	r24, 0x04	; 4
     6d4:	6d e8       	ldi	r22, 0x8D	; 141
     6d6:	72 e0       	ldi	r23, 0x02	; 2
     6d8:	e3 e0       	ldi	r30, 0x03	; 3
     6da:	db 01       	movw	r26, r22
     6dc:	0c 90       	ld	r0, X
     6de:	6f 5f       	subi	r22, 0xFF	; 255
     6e0:	7f 4f       	sbci	r23, 0xFF	; 255
     6e2:	dc 01       	movw	r26, r24
     6e4:	0c 92       	st	X, r0
     6e6:	01 96       	adiw	r24, 0x01	; 1
     6e8:	e1 50       	subi	r30, 0x01	; 1
     6ea:	ee 23       	and	r30, r30
     6ec:	b1 f7       	brne	.-20     	; 0x6da <image__unsigned_8_to_string_simon+0xe0>
     6ee:	6c 81       	ldd	r22, Y+4	; 0x04
     6f0:	9d 81       	ldd	r25, Y+5	; 0x05
     6f2:	8e 81       	ldd	r24, Y+6	; 0x06
     6f4:	26 2f       	mov	r18, r22
     6f6:	39 2f       	mov	r19, r25
     6f8:	48 2f       	mov	r20, r24
     6fa:	da 01       	movw	r26, r20
     6fc:	c9 01       	movw	r24, r18
   end Unsigned_8_To_String_Simon;
     6fe:	bc 01       	movw	r22, r24
     700:	cd 01       	movw	r24, r26
     702:	2a 96       	adiw	r28, 0x0a	; 10
     704:	0f b6       	in	r0, 0x3f	; 63
     706:	f8 94       	cli
     708:	de bf       	out	0x3e, r29	; 62
     70a:	0f be       	out	0x3f, r0	; 63
     70c:	cd bf       	out	0x3d, r28	; 61
     70e:	cf 91       	pop	r28
     710:	df 91       	pop	r29
     712:	08 95       	ret

00000714 <image__unsigned_8_to_string_shark8>:

   function Unsigned_8_To_String_Shark8 (Input : Unsigned_8) return String_3 is
     714:	df 93       	push	r29
     716:	cf 93       	push	r28
     718:	cd b7       	in	r28, 0x3d	; 61
     71a:	de b7       	in	r29, 0x3e	; 62
     71c:	29 97       	sbiw	r28, 0x09	; 9
     71e:	0f b6       	in	r0, 0x3f	; 63
     720:	f8 94       	cli
     722:	de bf       	out	0x3e, r29	; 62
     724:	0f be       	out	0x3f, r0	; 63
     726:	cd bf       	out	0x3d, r28	; 61
     728:	89 87       	std	Y+9, r24	; 0x09
      -- A temporary variable for manipulation, initialized to input.
      Working : Unsigned_8 := Input;
     72a:	89 85       	ldd	r24, Y+9	; 0x09
     72c:	89 83       	std	Y+1, r24	; 0x01
      -- Extended return, we do not have to initialize any characters
      -- because they will be in range '0'..'9' with leading zeros.
      return Result : String_3 do
         -- We assign the digit it's proper value, based on its
         -- position within the string.
         for Digit in reverse Result'Range loop
     72e:	83 e0       	ldi	r24, 0x03	; 3
     730:	8a 83       	std	Y+2, r24	; 0x02
     732:	8a 81       	ldd	r24, Y+2	; 0x02
     734:	88 23       	and	r24, r24
     736:	d9 f0       	breq	.+54     	; 0x76e <image__unsigned_8_to_string_shark8+0x5a>
            Result (Digit) := Character'Val (
     738:	8a 81       	ldd	r24, Y+2	; 0x02
     73a:	e8 2f       	mov	r30, r24
     73c:	f0 e0       	ldi	r31, 0x00	; 0
                                             -- We add the mod 10 value of working
                                             -- to the value of '0' to get the proper
                                             -- digit-character.
                                             Natural (Working mod 10) + Character'Pos('0')
     73e:	89 81       	ldd	r24, Y+1	; 0x01
     740:	9a e0       	ldi	r25, 0x0A	; 10
     742:	69 2f       	mov	r22, r25
     744:	0e 94 c4 17 	call	0x2f88	; 0x2f88 <__udivmodqi4>
     748:	89 2f       	mov	r24, r25
      -- because they will be in range '0'..'9' with leading zeros.
      return Result : String_3 do
         -- We assign the digit it's proper value, based on its
         -- position within the string.
         for Digit in reverse Result'Range loop
            Result (Digit) := Character'Val (
     74a:	68 2f       	mov	r22, r24
     74c:	60 5d       	subi	r22, 0xD0	; 208
     74e:	ce 01       	movw	r24, r28
     750:	05 96       	adiw	r24, 0x05	; 5
     752:	8e 0f       	add	r24, r30
     754:	9f 1f       	adc	r25, r31
     756:	dc 01       	movw	r26, r24
     758:	6c 93       	st	X, r22
                                             -- to the value of '0' to get the proper
                                             -- digit-character.
                                             Natural (Working mod 10) + Character'Pos('0')
                                            );
            -- We adjust our working-variable, by dividing it by 10.
            Working := Working / 10;
     75a:	89 81       	ldd	r24, Y+1	; 0x01
     75c:	9a e0       	ldi	r25, 0x0A	; 10
     75e:	69 2f       	mov	r22, r25
     760:	0e 94 c4 17 	call	0x2f88	; 0x2f88 <__udivmodqi4>
     764:	89 83       	std	Y+1, r24	; 0x01
      -- Extended return, we do not have to initialize any characters
      -- because they will be in range '0'..'9' with leading zeros.
      return Result : String_3 do
         -- We assign the digit it's proper value, based on its
         -- position within the string.
         for Digit in reverse Result'Range loop
     766:	8a 81       	ldd	r24, Y+2	; 0x02
     768:	81 50       	subi	r24, 0x01	; 1
     76a:	8a 83       	std	Y+2, r24	; 0x02
                                             -- digit-character.
                                             Natural (Working mod 10) + Character'Pos('0')
                                            );
            -- We adjust our working-variable, by dividing it by 10.
            Working := Working / 10;
         end loop;
     76c:	e2 cf       	rjmp	.-60     	; 0x732 <image__unsigned_8_to_string_shark8+0x1e>
      -- A temporary variable for manipulation, initialized to input.
      Working : Unsigned_8 := Input;
   begin
      -- Extended return, we do not have to initialize any characters
      -- because they will be in range '0'..'9' with leading zeros.
      return Result : String_3 do
     76e:	ce 01       	movw	r24, r28
     770:	03 96       	adiw	r24, 0x03	; 3
     772:	be 01       	movw	r22, r28
     774:	6a 5f       	subi	r22, 0xFA	; 250
     776:	7f 4f       	sbci	r23, 0xFF	; 255
     778:	e3 e0       	ldi	r30, 0x03	; 3
     77a:	db 01       	movw	r26, r22
     77c:	0c 90       	ld	r0, X
     77e:	6f 5f       	subi	r22, 0xFF	; 255
     780:	7f 4f       	sbci	r23, 0xFF	; 255
     782:	dc 01       	movw	r26, r24
     784:	0c 92       	st	X, r0
     786:	01 96       	adiw	r24, 0x01	; 1
     788:	e1 50       	subi	r30, 0x01	; 1
     78a:	ee 23       	and	r30, r30
     78c:	b1 f7       	brne	.-20     	; 0x77a <image__unsigned_8_to_string_shark8+0x66>
     78e:	6b 81       	ldd	r22, Y+3	; 0x03
     790:	9c 81       	ldd	r25, Y+4	; 0x04
     792:	8d 81       	ldd	r24, Y+5	; 0x05
     794:	26 2f       	mov	r18, r22
     796:	39 2f       	mov	r19, r25
     798:	48 2f       	mov	r20, r24
     79a:	da 01       	movw	r26, r20
     79c:	c9 01       	movw	r24, r18
            Working := Working / 10;
         end loop;
      end return;
   exception
      when others => return "   ";
   end Unsigned_8_To_String_Shark8;
     79e:	bc 01       	movw	r22, r24
     7a0:	cd 01       	movw	r24, r26
     7a2:	29 96       	adiw	r28, 0x09	; 9
     7a4:	0f b6       	in	r0, 0x3f	; 63
     7a6:	f8 94       	cli
     7a8:	de bf       	out	0x3e, r29	; 62
     7aa:	0f be       	out	0x3f, r0	; 63
     7ac:	cd bf       	out	0x3d, r28	; 61
     7ae:	cf 91       	pop	r28
     7b0:	df 91       	pop	r29
     7b2:	08 95       	ret

000007b4 <image__string_to_unsigned_8>:

   function String_To_Unsigned_8 (Input : String_U8) return Unsigned_8 is
     7b4:	df 93       	push	r29
     7b6:	cf 93       	push	r28
     7b8:	cd b7       	in	r28, 0x3d	; 61
     7ba:	de b7       	in	r29, 0x3e	; 62
     7bc:	28 97       	sbiw	r28, 0x08	; 8
     7be:	0f b6       	in	r0, 0x3f	; 63
     7c0:	f8 94       	cli
     7c2:	de bf       	out	0x3e, r29	; 62
     7c4:	0f be       	out	0x3f, r0	; 63
     7c6:	cd bf       	out	0x3d, r28	; 61
     7c8:	6d 83       	std	Y+5, r22	; 0x05
     7ca:	7e 83       	std	Y+6, r23	; 0x06
     7cc:	8f 83       	std	Y+7, r24	; 0x07
     7ce:	98 87       	std	Y+8, r25	; 0x08
     7d0:	8f 81       	ldd	r24, Y+7	; 0x07
     7d2:	98 85       	ldd	r25, Y+8	; 0x08
     7d4:	fc 01       	movw	r30, r24
     7d6:	20 81       	ld	r18, Z
     7d8:	8f 81       	ldd	r24, Y+7	; 0x07
     7da:	98 85       	ldd	r25, Y+8	; 0x08
     7dc:	fc 01       	movw	r30, r24
     7de:	31 81       	ldd	r19, Z+1	; 0x01
     7e0:	82 2f       	mov	r24, r18
     7e2:	90 e0       	ldi	r25, 0x00	; 0
      Result : Unsigned_8 := 0;
     7e4:	19 82       	std	Y+1, r1	; 0x01
   begin
      for Digit in Input'Range loop
     7e6:	2b 83       	std	Y+3, r18	; 0x03
     7e8:	3c 83       	std	Y+4, r19	; 0x04
     7ea:	3b 81       	ldd	r19, Y+3	; 0x03
     7ec:	2c 81       	ldd	r18, Y+4	; 0x04
     7ee:	23 17       	cp	r18, r19
     7f0:	f8 f0       	brcs	.+62     	; 0x830 <image__string_to_unsigned_8+0x7c>
     7f2:	2b 81       	ldd	r18, Y+3	; 0x03
     7f4:	2a 83       	std	Y+2, r18	; 0x02
         Result := 10 * Result + (Character'Pos (Input (Digit)) - Character'Pos ('0'));
     7f6:	29 81       	ldd	r18, Y+1	; 0x01
     7f8:	22 0f       	add	r18, r18
     7fa:	32 2f       	mov	r19, r18
     7fc:	33 0f       	add	r19, r19
     7fe:	33 0f       	add	r19, r19
     800:	62 2f       	mov	r22, r18
     802:	63 0f       	add	r22, r19
     804:	4d 81       	ldd	r20, Y+5	; 0x05
     806:	5e 81       	ldd	r21, Y+6	; 0x06
     808:	2a 81       	ldd	r18, Y+2	; 0x02
     80a:	22 2f       	mov	r18, r18
     80c:	30 e0       	ldi	r19, 0x00	; 0
     80e:	28 1b       	sub	r18, r24
     810:	39 0b       	sbc	r19, r25
     812:	24 0f       	add	r18, r20
     814:	35 1f       	adc	r19, r21
     816:	f9 01       	movw	r30, r18
     818:	20 81       	ld	r18, Z
     81a:	26 0f       	add	r18, r22
     81c:	20 53       	subi	r18, 0x30	; 48
     81e:	29 83       	std	Y+1, r18	; 0x01
   end Unsigned_8_To_String_Shark8;

   function String_To_Unsigned_8 (Input : String_U8) return Unsigned_8 is
      Result : Unsigned_8 := 0;
   begin
      for Digit in Input'Range loop
     820:	3a 81       	ldd	r19, Y+2	; 0x02
     822:	2c 81       	ldd	r18, Y+4	; 0x04
     824:	32 17       	cp	r19, r18
     826:	21 f0       	breq	.+8      	; 0x830 <image__string_to_unsigned_8+0x7c>
     828:	2a 81       	ldd	r18, Y+2	; 0x02
     82a:	2f 5f       	subi	r18, 0xFF	; 255
     82c:	2a 83       	std	Y+2, r18	; 0x02
         Result := 10 * Result + (Character'Pos (Input (Digit)) - Character'Pos ('0'));
      end loop;
     82e:	e3 cf       	rjmp	.-58     	; 0x7f6 <image__string_to_unsigned_8+0x42>

      return Result;
     830:	89 81       	ldd	r24, Y+1	; 0x01
     832:	00 00       	nop
   end String_To_Unsigned_8;
     834:	28 96       	adiw	r28, 0x08	; 8
     836:	0f b6       	in	r0, 0x3f	; 63
     838:	f8 94       	cli
     83a:	de bf       	out	0x3e, r29	; 62
     83c:	0f be       	out	0x3f, r0	; 63
     83e:	cd bf       	out	0x3d, r28	; 61
     840:	cf 91       	pop	r28
     842:	df 91       	pop	r29
     844:	08 95       	ret

00000846 <image__string_to_unsigned_32>:

   function String_To_Unsigned_32 (Input : String_U8) return Unsigned_32 is
     846:	0f 93       	push	r16
     848:	1f 93       	push	r17
     84a:	df 93       	push	r29
     84c:	cf 93       	push	r28
     84e:	cd b7       	in	r28, 0x3d	; 61
     850:	de b7       	in	r29, 0x3e	; 62
     852:	2b 97       	sbiw	r28, 0x0b	; 11
     854:	0f b6       	in	r0, 0x3f	; 63
     856:	f8 94       	cli
     858:	de bf       	out	0x3e, r29	; 62
     85a:	0f be       	out	0x3f, r0	; 63
     85c:	cd bf       	out	0x3d, r28	; 61
     85e:	68 87       	std	Y+8, r22	; 0x08
     860:	79 87       	std	Y+9, r23	; 0x09
     862:	8a 87       	std	Y+10, r24	; 0x0a
     864:	9b 87       	std	Y+11, r25	; 0x0b
     866:	8a 85       	ldd	r24, Y+10	; 0x0a
     868:	9b 85       	ldd	r25, Y+11	; 0x0b
     86a:	fc 01       	movw	r30, r24
     86c:	20 81       	ld	r18, Z
     86e:	8a 85       	ldd	r24, Y+10	; 0x0a
     870:	9b 85       	ldd	r25, Y+11	; 0x0b
     872:	fc 01       	movw	r30, r24
     874:	81 81       	ldd	r24, Z+1	; 0x01
     876:	02 2f       	mov	r16, r18
     878:	10 e0       	ldi	r17, 0x00	; 0
      Result : Unsigned_32 := 0;
     87a:	19 82       	std	Y+1, r1	; 0x01
     87c:	1a 82       	std	Y+2, r1	; 0x02
     87e:	1b 82       	std	Y+3, r1	; 0x03
     880:	1c 82       	std	Y+4, r1	; 0x04
   begin
      for Digit in Input'Range loop
     882:	2e 83       	std	Y+6, r18	; 0x06
     884:	8f 83       	std	Y+7, r24	; 0x07
     886:	9e 81       	ldd	r25, Y+6	; 0x06
     888:	8f 81       	ldd	r24, Y+7	; 0x07
     88a:	89 17       	cp	r24, r25
     88c:	90 f1       	brcs	.+100    	; 0x8f2 <image__string_to_unsigned_32+0xac>
     88e:	8e 81       	ldd	r24, Y+6	; 0x06
     890:	8d 83       	std	Y+5, r24	; 0x05
         Result := 10 * Result + (Character'Pos (Input (Digit)) - Character'Pos ('0'));
     892:	89 81       	ldd	r24, Y+1	; 0x01
     894:	9a 81       	ldd	r25, Y+2	; 0x02
     896:	ab 81       	ldd	r26, Y+3	; 0x03
     898:	bc 81       	ldd	r27, Y+4	; 0x04
     89a:	2a e0       	ldi	r18, 0x0A	; 10
     89c:	30 e0       	ldi	r19, 0x00	; 0
     89e:	40 e0       	ldi	r20, 0x00	; 0
     8a0:	50 e0       	ldi	r21, 0x00	; 0
     8a2:	bc 01       	movw	r22, r24
     8a4:	cd 01       	movw	r24, r26
     8a6:	0e 94 a5 17 	call	0x2f4a	; 0x2f4a <__mulsi3>
     8aa:	9b 01       	movw	r18, r22
     8ac:	ac 01       	movw	r20, r24
     8ae:	68 85       	ldd	r22, Y+8	; 0x08
     8b0:	79 85       	ldd	r23, Y+9	; 0x09
     8b2:	8d 81       	ldd	r24, Y+5	; 0x05
     8b4:	88 2f       	mov	r24, r24
     8b6:	90 e0       	ldi	r25, 0x00	; 0
     8b8:	80 1b       	sub	r24, r16
     8ba:	91 0b       	sbc	r25, r17
     8bc:	86 0f       	add	r24, r22
     8be:	97 1f       	adc	r25, r23
     8c0:	fc 01       	movw	r30, r24
     8c2:	80 81       	ld	r24, Z
     8c4:	88 2f       	mov	r24, r24
     8c6:	90 e0       	ldi	r25, 0x00	; 0
     8c8:	a0 e0       	ldi	r26, 0x00	; 0
     8ca:	b0 e0       	ldi	r27, 0x00	; 0
     8cc:	82 0f       	add	r24, r18
     8ce:	93 1f       	adc	r25, r19
     8d0:	a4 1f       	adc	r26, r20
     8d2:	b5 1f       	adc	r27, r21
     8d4:	c0 97       	sbiw	r24, 0x30	; 48
     8d6:	a1 09       	sbc	r26, r1
     8d8:	b1 09       	sbc	r27, r1
     8da:	89 83       	std	Y+1, r24	; 0x01
     8dc:	9a 83       	std	Y+2, r25	; 0x02
     8de:	ab 83       	std	Y+3, r26	; 0x03
     8e0:	bc 83       	std	Y+4, r27	; 0x04
   end String_To_Unsigned_8;

   function String_To_Unsigned_32 (Input : String_U8) return Unsigned_32 is
      Result : Unsigned_32 := 0;
   begin
      for Digit in Input'Range loop
     8e2:	9d 81       	ldd	r25, Y+5	; 0x05
     8e4:	8f 81       	ldd	r24, Y+7	; 0x07
     8e6:	98 17       	cp	r25, r24
     8e8:	21 f0       	breq	.+8      	; 0x8f2 <image__string_to_unsigned_32+0xac>
     8ea:	8d 81       	ldd	r24, Y+5	; 0x05
     8ec:	8f 5f       	subi	r24, 0xFF	; 255
     8ee:	8d 83       	std	Y+5, r24	; 0x05
         Result := 10 * Result + (Character'Pos (Input (Digit)) - Character'Pos ('0'));
      end loop;
     8f0:	d0 cf       	rjmp	.-96     	; 0x892 <image__string_to_unsigned_32+0x4c>

      return Result;
     8f2:	89 81       	ldd	r24, Y+1	; 0x01
     8f4:	9a 81       	ldd	r25, Y+2	; 0x02
     8f6:	ab 81       	ldd	r26, Y+3	; 0x03
     8f8:	bc 81       	ldd	r27, Y+4	; 0x04
     8fa:	00 00       	nop
   end String_To_Unsigned_32;
     8fc:	bc 01       	movw	r22, r24
     8fe:	cd 01       	movw	r24, r26
     900:	2b 96       	adiw	r28, 0x0b	; 11
     902:	0f b6       	in	r0, 0x3f	; 63
     904:	f8 94       	cli
     906:	de bf       	out	0x3e, r29	; 62
     908:	0f be       	out	0x3f, r0	; 63
     90a:	cd bf       	out	0x3d, r28	; 61
     90c:	cf 91       	pop	r28
     90e:	df 91       	pop	r29
     910:	1f 91       	pop	r17
     912:	0f 91       	pop	r16
     914:	08 95       	ret

00000916 <image__string_to_unsigned_8_shark8>:

   function String_To_Unsigned_8_Shark8 (Input : String_3) return Unsigned_8 is
     916:	df 93       	push	r29
     918:	cf 93       	push	r28
     91a:	cd b7       	in	r28, 0x3d	; 61
     91c:	de b7       	in	r29, 0x3e	; 62
     91e:	2c 97       	sbiw	r28, 0x0c	; 12
     920:	0f b6       	in	r0, 0x3f	; 63
     922:	f8 94       	cli
     924:	de bf       	out	0x3e, r29	; 62
     926:	0f be       	out	0x3f, r0	; 63
     928:	cd bf       	out	0x3d, r28	; 61
     92a:	6a 87       	std	Y+10, r22	; 0x0a
     92c:	7b 87       	std	Y+11, r23	; 0x0b
     92e:	8c 87       	std	Y+12, r24	; 0x0c
      Working : String_3    := Input;
     930:	ce 01       	movw	r24, r28
     932:	07 96       	adiw	r24, 0x07	; 7
     934:	9e 01       	movw	r18, r28
     936:	26 5f       	subi	r18, 0xF6	; 246
     938:	3f 4f       	sbci	r19, 0xFF	; 255
     93a:	43 e0       	ldi	r20, 0x03	; 3
     93c:	d9 01       	movw	r26, r18
     93e:	0c 90       	ld	r0, X
     940:	2f 5f       	subi	r18, 0xFF	; 255
     942:	3f 4f       	sbci	r19, 0xFF	; 255
     944:	fc 01       	movw	r30, r24
     946:	00 82       	st	Z, r0
     948:	01 96       	adiw	r24, 0x01	; 1
     94a:	41 50       	subi	r20, 0x01	; 1
     94c:	44 23       	and	r20, r20
     94e:	b1 f7       	brne	.-20     	; 0x93c <image__string_to_unsigned_8_shark8+0x26>
      Index   : Unsigned_8 := 1;
     950:	81 e0       	ldi	r24, 0x01	; 1
     952:	89 83       	std	Y+1, r24	; 0x01
   begin
      -- Preprocessing string: spaces are treated as 0.
      for C of Working loop
     954:	e1 e0       	ldi	r30, 0x01	; 1
     956:	e4 30       	cpi	r30, 0x04	; 4
     958:	d0 f5       	brcc	.+116    	; 0x9ce <image__string_to_unsigned_8_shark8+0xb8>
     95a:	8e 2f       	mov	r24, r30
     95c:	28 2f       	mov	r18, r24
     95e:	30 e0       	ldi	r19, 0x00	; 0
     960:	ae 01       	movw	r20, r28
     962:	49 5f       	subi	r20, 0xF9	; 249
     964:	5f 4f       	sbci	r21, 0xFF	; 255
     966:	21 50       	subi	r18, 0x01	; 1
     968:	30 40       	sbci	r19, 0x00	; 0
     96a:	24 0f       	add	r18, r20
     96c:	35 1f       	adc	r19, r21
     96e:	3c 83       	std	Y+4, r19	; 0x04
     970:	2b 83       	std	Y+3, r18	; 0x03
         C := (if C = ' ' then '0' else C);
     972:	28 2f       	mov	r18, r24
     974:	30 e0       	ldi	r19, 0x00	; 0
     976:	48 2f       	mov	r20, r24
     978:	50 e0       	ldi	r21, 0x00	; 0
     97a:	be 01       	movw	r22, r28
     97c:	6a 5f       	subi	r22, 0xFA	; 250
     97e:	7f 4f       	sbci	r23, 0xFF	; 255
     980:	46 0f       	add	r20, r22
     982:	57 1f       	adc	r21, r23
     984:	da 01       	movw	r26, r20
     986:	9c 91       	ld	r25, X
     988:	90 32       	cpi	r25, 0x20	; 32
     98a:	51 f0       	breq	.+20     	; 0x9a0 <image__string_to_unsigned_8_shark8+0x8a>
     98c:	48 2f       	mov	r20, r24
     98e:	50 e0       	ldi	r21, 0x00	; 0
     990:	be 01       	movw	r22, r28
     992:	6a 5f       	subi	r22, 0xFA	; 250
     994:	7f 4f       	sbci	r23, 0xFF	; 255
     996:	46 0f       	add	r20, r22
     998:	57 1f       	adc	r21, r23
     99a:	da 01       	movw	r26, r20
     99c:	9c 91       	ld	r25, X
     99e:	01 c0       	rjmp	.+2      	; 0x9a2 <image__string_to_unsigned_8_shark8+0x8c>
     9a0:	90 e3       	ldi	r25, 0x30	; 48
     9a2:	ae 01       	movw	r20, r28
     9a4:	4a 5f       	subi	r20, 0xFA	; 250
     9a6:	5f 4f       	sbci	r21, 0xFF	; 255
     9a8:	24 0f       	add	r18, r20
     9aa:	35 1f       	adc	r19, r21
     9ac:	d9 01       	movw	r26, r18
     9ae:	9c 93       	st	X, r25
         -- throw error if invalid characters exist.
         if C not in Digit then
     9b0:	88 2f       	mov	r24, r24
     9b2:	90 e0       	ldi	r25, 0x00	; 0
     9b4:	9e 01       	movw	r18, r28
     9b6:	2a 5f       	subi	r18, 0xFA	; 250
     9b8:	3f 4f       	sbci	r19, 0xFF	; 255
     9ba:	82 0f       	add	r24, r18
     9bc:	93 1f       	adc	r25, r19
     9be:	dc 01       	movw	r26, r24
     9c0:	8c 91       	ld	r24, X
     9c2:	80 33       	cpi	r24, 0x30	; 48
     9c4:	80 f1       	brcs	.+96     	; 0xa26 <image__string_to_unsigned_8_shark8+0x110>
     9c6:	8a 33       	cpi	r24, 0x3A	; 58
     9c8:	70 f5       	brcc	.+92     	; 0xa26 <image__string_to_unsigned_8_shark8+0x110>
   function String_To_Unsigned_8_Shark8 (Input : String_3) return Unsigned_8 is
      Working : String_3    := Input;
      Index   : Unsigned_8 := 1;
   begin
      -- Preprocessing string: spaces are treated as 0.
      for C of Working loop
     9ca:	ef 5f       	subi	r30, 0xFF	; 255
     9cc:	c4 cf       	rjmp	.-120    	; 0x956 <image__string_to_unsigned_8_shark8+0x40>
         end if;
         -- Note a case statement might habe been
         -- nore appropriate for this block.
      end loop;

      return Result : Unsigned_8 := 0 do
     9ce:	1a 82       	std	Y+2, r1	; 0x02
         for C of reverse Working loop
     9d0:	43 e0       	ldi	r20, 0x03	; 3
     9d2:	44 23       	and	r20, r20
     9d4:	31 f1       	breq	.+76     	; 0xa22 <image__string_to_unsigned_8_shark8+0x10c>
     9d6:	54 2f       	mov	r21, r20
     9d8:	85 2f       	mov	r24, r21
     9da:	90 e0       	ldi	r25, 0x00	; 0
     9dc:	9e 01       	movw	r18, r28
     9de:	29 5f       	subi	r18, 0xF9	; 249
     9e0:	3f 4f       	sbci	r19, 0xFF	; 255
     9e2:	01 97       	sbiw	r24, 0x01	; 1
     9e4:	82 0f       	add	r24, r18
     9e6:	93 1f       	adc	r25, r19
     9e8:	9e 83       	std	Y+6, r25	; 0x06
     9ea:	8d 83       	std	Y+5, r24	; 0x05
            -- We add the current character's value, multiplied
            -- by its position, to modify result.
            Result:= Result +
              Index * (Character'Pos(C) - Character'Pos('0'));
     9ec:	85 2f       	mov	r24, r21
     9ee:	90 e0       	ldi	r25, 0x00	; 0
     9f0:	9e 01       	movw	r18, r28
     9f2:	2a 5f       	subi	r18, 0xFA	; 250
     9f4:	3f 4f       	sbci	r19, 0xFF	; 255
     9f6:	82 0f       	add	r24, r18
     9f8:	93 1f       	adc	r25, r19
     9fa:	fc 01       	movw	r30, r24
     9fc:	80 81       	ld	r24, Z
     9fe:	98 2f       	mov	r25, r24
     a00:	90 53       	subi	r25, 0x30	; 48
     a02:	89 81       	ldd	r24, Y+1	; 0x01
     a04:	98 9f       	mul	r25, r24
     a06:	80 2d       	mov	r24, r0
     a08:	11 24       	eor	r1, r1

      return Result : Unsigned_8 := 0 do
         for C of reverse Working loop
            -- We add the current character's value, multiplied
            -- by its position, to modify result.
            Result:= Result +
     a0a:	9a 81       	ldd	r25, Y+2	; 0x02
     a0c:	89 0f       	add	r24, r25
     a0e:	8a 83       	std	Y+2, r24	; 0x02
              Index * (Character'Pos(C) - Character'Pos('0'));
            -- The following works because wrap-around isn't an error.
            -- If we weren't using Unsigned_8 we would need a cast.
            Index:= Index * 10;
     a10:	89 81       	ldd	r24, Y+1	; 0x01
     a12:	88 0f       	add	r24, r24
     a14:	98 2f       	mov	r25, r24
     a16:	99 0f       	add	r25, r25
     a18:	99 0f       	add	r25, r25
     a1a:	89 0f       	add	r24, r25
     a1c:	89 83       	std	Y+1, r24	; 0x01
         -- Note a case statement might habe been
         -- nore appropriate for this block.
      end loop;

      return Result : Unsigned_8 := 0 do
         for C of reverse Working loop
     a1e:	41 50       	subi	r20, 0x01	; 1
     a20:	d8 cf       	rjmp	.-80     	; 0x9d2 <image__string_to_unsigned_8_shark8+0xbc>
         end if;
         -- Note a case statement might habe been
         -- nore appropriate for this block.
      end loop;

      return Result : Unsigned_8 := 0 do
     a22:	8a 81       	ldd	r24, Y+2	; 0x02
     a24:	02 c0       	rjmp	.+4      	; 0xa2a <image__string_to_unsigned_8_shark8+0x114>
      -- Preprocessing string: spaces are treated as 0.
      for C of Working loop
         C := (if C = ' ' then '0' else C);
         -- throw error if invalid characters exist.
         if C not in Digit then
            raise Numeric_Error;
     a26:	00 00       	nop
            Index:= Index * 10;
         end loop;
      end return;

   exception
      when others => return 0;
     a28:	80 e0       	ldi	r24, 0x00	; 0
   end String_To_Unsigned_8_Shark8;
     a2a:	00 00       	nop
     a2c:	2c 96       	adiw	r28, 0x0c	; 12
     a2e:	0f b6       	in	r0, 0x3f	; 63
     a30:	f8 94       	cli
     a32:	de bf       	out	0x3e, r29	; 62
     a34:	0f be       	out	0x3f, r0	; 63
     a36:	cd bf       	out	0x3d, r28	; 61
     a38:	cf 91       	pop	r28
     a3a:	df 91       	pop	r29
     a3c:	08 95       	ret

00000a3e <image__compare_string_u8>:

   function Compare_String_U8 (Left, Right : in String_U8) return Boolean is
     a3e:	2f 92       	push	r2
     a40:	3f 92       	push	r3
     a42:	4f 92       	push	r4
     a44:	5f 92       	push	r5
     a46:	6f 92       	push	r6
     a48:	7f 92       	push	r7
     a4a:	8f 92       	push	r8
     a4c:	9f 92       	push	r9
     a4e:	af 92       	push	r10
     a50:	bf 92       	push	r11
     a52:	cf 92       	push	r12
     a54:	df 92       	push	r13
     a56:	ef 92       	push	r14
     a58:	ff 92       	push	r15
     a5a:	0f 93       	push	r16
     a5c:	1f 93       	push	r17
     a5e:	df 93       	push	r29
     a60:	cf 93       	push	r28
     a62:	cd b7       	in	r28, 0x3d	; 61
     a64:	de b7       	in	r29, 0x3e	; 62
     a66:	68 97       	sbiw	r28, 0x18	; 24
     a68:	0f b6       	in	r0, 0x3f	; 63
     a6a:	f8 94       	cli
     a6c:	de bf       	out	0x3e, r29	; 62
     a6e:	0f be       	out	0x3f, r0	; 63
     a70:	cd bf       	out	0x3d, r28	; 61
     a72:	6d 83       	std	Y+5, r22	; 0x05
     a74:	7e 83       	std	Y+6, r23	; 0x06
     a76:	8f 83       	std	Y+7, r24	; 0x07
     a78:	98 87       	std	Y+8, r25	; 0x08
     a7a:	29 87       	std	Y+9, r18	; 0x09
     a7c:	3a 87       	std	Y+10, r19	; 0x0a
     a7e:	4b 87       	std	Y+11, r20	; 0x0b
     a80:	5c 87       	std	Y+12, r21	; 0x0c
     a82:	8b 85       	ldd	r24, Y+11	; 0x0b
     a84:	9c 85       	ldd	r25, Y+12	; 0x0c
     a86:	dc 01       	movw	r26, r24
     a88:	bc 91       	ld	r27, X
     a8a:	bd 87       	std	Y+13, r27	; 0x0d
     a8c:	8b 85       	ldd	r24, Y+11	; 0x0b
     a8e:	9c 85       	ldd	r25, Y+12	; 0x0c
     a90:	fc 01       	movw	r30, r24
     a92:	f1 81       	ldd	r31, Z+1	; 0x01
     a94:	fe 87       	std	Y+14, r31	; 0x0e
     a96:	2e 85       	ldd	r18, Y+14	; 0x0e
     a98:	4d 85       	ldd	r20, Y+13	; 0x0d
     a9a:	24 17       	cp	r18, r20
     a9c:	08 f4       	brcc	.+2      	; 0xaa0 <image__compare_string_u8+0x62>
     a9e:	e8 c0       	rjmp	.+464    	; 0xc70 <image__compare_string_u8+0x232>
     aa0:	5e 85       	ldd	r21, Y+14	; 0x0e
     aa2:	a5 2e       	mov	r10, r21
     aa4:	bb 24       	eor	r11, r11
     aa6:	cc 24       	eor	r12, r12
     aa8:	dd 24       	eor	r13, r13
     aaa:	ee 24       	eor	r14, r14
     aac:	ff 24       	eor	r15, r15
     aae:	87 01       	movw	r16, r14
     ab0:	8d 85       	ldd	r24, Y+13	; 0x0d
     ab2:	28 2e       	mov	r2, r24
     ab4:	33 24       	eor	r3, r3
     ab6:	44 24       	eor	r4, r4
     ab8:	55 24       	eor	r5, r5
     aba:	66 24       	eor	r6, r6
     abc:	77 24       	eor	r7, r7
     abe:	43 01       	movw	r8, r6
     ac0:	2a 2d       	mov	r18, r10
     ac2:	22 19       	sub	r18, r2
     ac4:	e1 e0       	ldi	r30, 0x01	; 1
     ac6:	a2 16       	cp	r10, r18
     ac8:	08 f0       	brcs	.+2      	; 0xacc <image__compare_string_u8+0x8e>
     aca:	e0 e0       	ldi	r30, 0x00	; 0
     acc:	3b 2d       	mov	r19, r11
     ace:	33 19       	sub	r19, r3
     ad0:	f1 e0       	ldi	r31, 0x01	; 1
     ad2:	b3 16       	cp	r11, r19
     ad4:	08 f0       	brcs	.+2      	; 0xad8 <image__compare_string_u8+0x9a>
     ad6:	f0 e0       	ldi	r31, 0x00	; 0
     ad8:	a3 2f       	mov	r26, r19
     ada:	ae 1b       	sub	r26, r30
     adc:	ea 2f       	mov	r30, r26
     ade:	a1 e0       	ldi	r26, 0x01	; 1
     ae0:	3e 17       	cp	r19, r30
     ae2:	08 f0       	brcs	.+2      	; 0xae6 <image__compare_string_u8+0xa8>
     ae4:	a0 e0       	ldi	r26, 0x00	; 0
     ae6:	fa 2b       	or	r31, r26
     ae8:	3e 2f       	mov	r19, r30
     aea:	4c 2d       	mov	r20, r12
     aec:	44 19       	sub	r20, r4
     aee:	e1 e0       	ldi	r30, 0x01	; 1
     af0:	c4 16       	cp	r12, r20
     af2:	08 f0       	brcs	.+2      	; 0xaf6 <image__compare_string_u8+0xb8>
     af4:	e0 e0       	ldi	r30, 0x00	; 0
     af6:	b4 2f       	mov	r27, r20
     af8:	bf 1b       	sub	r27, r31
     afa:	fb 2f       	mov	r31, r27
     afc:	a1 e0       	ldi	r26, 0x01	; 1
     afe:	4f 17       	cp	r20, r31
     b00:	08 f0       	brcs	.+2      	; 0xb04 <image__compare_string_u8+0xc6>
     b02:	a0 e0       	ldi	r26, 0x00	; 0
     b04:	ea 2b       	or	r30, r26
     b06:	4f 2f       	mov	r20, r31
     b08:	5d 2d       	mov	r21, r13
     b0a:	55 19       	sub	r21, r5
     b0c:	f1 e0       	ldi	r31, 0x01	; 1
     b0e:	d5 16       	cp	r13, r21
     b10:	08 f0       	brcs	.+2      	; 0xb14 <image__compare_string_u8+0xd6>
     b12:	f0 e0       	ldi	r31, 0x00	; 0
     b14:	a5 2f       	mov	r26, r21
     b16:	ae 1b       	sub	r26, r30
     b18:	ea 2f       	mov	r30, r26
     b1a:	a1 e0       	ldi	r26, 0x01	; 1
     b1c:	5e 17       	cp	r21, r30
     b1e:	08 f0       	brcs	.+2      	; 0xb22 <image__compare_string_u8+0xe4>
     b20:	a0 e0       	ldi	r26, 0x00	; 0
     b22:	fa 2b       	or	r31, r26
     b24:	5e 2f       	mov	r21, r30
     b26:	6e 2d       	mov	r22, r14
     b28:	66 19       	sub	r22, r6
     b2a:	e1 e0       	ldi	r30, 0x01	; 1
     b2c:	e6 16       	cp	r14, r22
     b2e:	08 f0       	brcs	.+2      	; 0xb32 <image__compare_string_u8+0xf4>
     b30:	e0 e0       	ldi	r30, 0x00	; 0
     b32:	b6 2f       	mov	r27, r22
     b34:	bf 1b       	sub	r27, r31
     b36:	fb 2f       	mov	r31, r27
     b38:	a1 e0       	ldi	r26, 0x01	; 1
     b3a:	6f 17       	cp	r22, r31
     b3c:	08 f0       	brcs	.+2      	; 0xb40 <image__compare_string_u8+0x102>
     b3e:	a0 e0       	ldi	r26, 0x00	; 0
     b40:	ea 2b       	or	r30, r26
     b42:	6f 2f       	mov	r22, r31
     b44:	7f 2d       	mov	r23, r15
     b46:	77 19       	sub	r23, r7
     b48:	f1 e0       	ldi	r31, 0x01	; 1
     b4a:	f7 16       	cp	r15, r23
     b4c:	08 f0       	brcs	.+2      	; 0xb50 <image__compare_string_u8+0x112>
     b4e:	f0 e0       	ldi	r31, 0x00	; 0
     b50:	a7 2f       	mov	r26, r23
     b52:	ae 1b       	sub	r26, r30
     b54:	ea 2f       	mov	r30, r26
     b56:	a1 e0       	ldi	r26, 0x01	; 1
     b58:	7e 17       	cp	r23, r30
     b5a:	08 f0       	brcs	.+2      	; 0xb5e <image__compare_string_u8+0x120>
     b5c:	a0 e0       	ldi	r26, 0x00	; 0
     b5e:	fa 2b       	or	r31, r26
     b60:	7e 2f       	mov	r23, r30
     b62:	80 2f       	mov	r24, r16
     b64:	88 19       	sub	r24, r8
     b66:	e1 e0       	ldi	r30, 0x01	; 1
     b68:	08 17       	cp	r16, r24
     b6a:	08 f0       	brcs	.+2      	; 0xb6e <image__compare_string_u8+0x130>
     b6c:	e0 e0       	ldi	r30, 0x00	; 0
     b6e:	b8 2f       	mov	r27, r24
     b70:	bf 1b       	sub	r27, r31
     b72:	fb 2f       	mov	r31, r27
     b74:	a1 e0       	ldi	r26, 0x01	; 1
     b76:	8f 17       	cp	r24, r31
     b78:	08 f0       	brcs	.+2      	; 0xb7c <image__compare_string_u8+0x13e>
     b7a:	a0 e0       	ldi	r26, 0x00	; 0
     b7c:	ea 2b       	or	r30, r26
     b7e:	8f 2f       	mov	r24, r31
     b80:	91 2f       	mov	r25, r17
     b82:	99 19       	sub	r25, r9
     b84:	f9 2f       	mov	r31, r25
     b86:	fe 1b       	sub	r31, r30
     b88:	ef 2f       	mov	r30, r31
     b8a:	9e 2f       	mov	r25, r30
     b8c:	a2 2e       	mov	r10, r18
     b8e:	b3 2e       	mov	r11, r19
     b90:	c4 2e       	mov	r12, r20
     b92:	d5 2e       	mov	r13, r21
     b94:	e6 2e       	mov	r14, r22
     b96:	f7 2e       	mov	r15, r23
     b98:	08 2f       	mov	r16, r24
     b9a:	19 2f       	mov	r17, r25
     b9c:	22 24       	eor	r2, r2
     b9e:	23 94       	inc	r2
     ba0:	33 24       	eor	r3, r3
     ba2:	44 24       	eor	r4, r4
     ba4:	55 24       	eor	r5, r5
     ba6:	66 24       	eor	r6, r6
     ba8:	77 24       	eor	r7, r7
     baa:	88 24       	eor	r8, r8
     bac:	99 24       	eor	r9, r9
     bae:	2a 2d       	mov	r18, r10
     bb0:	22 0d       	add	r18, r2
     bb2:	e1 e0       	ldi	r30, 0x01	; 1
     bb4:	2a 15       	cp	r18, r10
     bb6:	08 f0       	brcs	.+2      	; 0xbba <image__compare_string_u8+0x17c>
     bb8:	e0 e0       	ldi	r30, 0x00	; 0
     bba:	3b 2d       	mov	r19, r11
     bbc:	33 0d       	add	r19, r3
     bbe:	f1 e0       	ldi	r31, 0x01	; 1
     bc0:	3b 15       	cp	r19, r11
     bc2:	08 f0       	brcs	.+2      	; 0xbc6 <image__compare_string_u8+0x188>
     bc4:	f0 e0       	ldi	r31, 0x00	; 0
     bc6:	e3 0f       	add	r30, r19
     bc8:	a1 e0       	ldi	r26, 0x01	; 1
     bca:	e3 17       	cp	r30, r19
     bcc:	08 f0       	brcs	.+2      	; 0xbd0 <image__compare_string_u8+0x192>
     bce:	a0 e0       	ldi	r26, 0x00	; 0
     bd0:	fa 2b       	or	r31, r26
     bd2:	3e 2f       	mov	r19, r30
     bd4:	4c 2d       	mov	r20, r12
     bd6:	44 0d       	add	r20, r4
     bd8:	e1 e0       	ldi	r30, 0x01	; 1
     bda:	4c 15       	cp	r20, r12
     bdc:	08 f0       	brcs	.+2      	; 0xbe0 <image__compare_string_u8+0x1a2>
     bde:	e0 e0       	ldi	r30, 0x00	; 0
     be0:	f4 0f       	add	r31, r20
     be2:	a1 e0       	ldi	r26, 0x01	; 1
     be4:	f4 17       	cp	r31, r20
     be6:	08 f0       	brcs	.+2      	; 0xbea <image__compare_string_u8+0x1ac>
     be8:	a0 e0       	ldi	r26, 0x00	; 0
     bea:	ea 2b       	or	r30, r26
     bec:	4f 2f       	mov	r20, r31
     bee:	5d 2d       	mov	r21, r13
     bf0:	55 0d       	add	r21, r5
     bf2:	f1 e0       	ldi	r31, 0x01	; 1
     bf4:	5d 15       	cp	r21, r13
     bf6:	08 f0       	brcs	.+2      	; 0xbfa <image__compare_string_u8+0x1bc>
     bf8:	f0 e0       	ldi	r31, 0x00	; 0
     bfa:	e5 0f       	add	r30, r21
     bfc:	a1 e0       	ldi	r26, 0x01	; 1
     bfe:	e5 17       	cp	r30, r21
     c00:	08 f0       	brcs	.+2      	; 0xc04 <image__compare_string_u8+0x1c6>
     c02:	a0 e0       	ldi	r26, 0x00	; 0
     c04:	fa 2b       	or	r31, r26
     c06:	5e 2f       	mov	r21, r30
     c08:	6e 2d       	mov	r22, r14
     c0a:	66 0d       	add	r22, r6
     c0c:	e1 e0       	ldi	r30, 0x01	; 1
     c0e:	6e 15       	cp	r22, r14
     c10:	08 f0       	brcs	.+2      	; 0xc14 <image__compare_string_u8+0x1d6>
     c12:	e0 e0       	ldi	r30, 0x00	; 0
     c14:	f6 0f       	add	r31, r22
     c16:	a1 e0       	ldi	r26, 0x01	; 1
     c18:	f6 17       	cp	r31, r22
     c1a:	08 f0       	brcs	.+2      	; 0xc1e <image__compare_string_u8+0x1e0>
     c1c:	a0 e0       	ldi	r26, 0x00	; 0
     c1e:	ea 2b       	or	r30, r26
     c20:	6f 2f       	mov	r22, r31
     c22:	7f 2d       	mov	r23, r15
     c24:	77 0d       	add	r23, r7
     c26:	f1 e0       	ldi	r31, 0x01	; 1
     c28:	7f 15       	cp	r23, r15
     c2a:	08 f0       	brcs	.+2      	; 0xc2e <image__compare_string_u8+0x1f0>
     c2c:	f0 e0       	ldi	r31, 0x00	; 0
     c2e:	e7 0f       	add	r30, r23
     c30:	a1 e0       	ldi	r26, 0x01	; 1
     c32:	e7 17       	cp	r30, r23
     c34:	08 f0       	brcs	.+2      	; 0xc38 <image__compare_string_u8+0x1fa>
     c36:	a0 e0       	ldi	r26, 0x00	; 0
     c38:	fa 2b       	or	r31, r26
     c3a:	7e 2f       	mov	r23, r30
     c3c:	80 2f       	mov	r24, r16
     c3e:	88 0d       	add	r24, r8
     c40:	e1 e0       	ldi	r30, 0x01	; 1
     c42:	80 17       	cp	r24, r16
     c44:	08 f0       	brcs	.+2      	; 0xc48 <image__compare_string_u8+0x20a>
     c46:	e0 e0       	ldi	r30, 0x00	; 0
     c48:	f8 0f       	add	r31, r24
     c4a:	a1 e0       	ldi	r26, 0x01	; 1
     c4c:	f8 17       	cp	r31, r24
     c4e:	08 f0       	brcs	.+2      	; 0xc52 <image__compare_string_u8+0x214>
     c50:	a0 e0       	ldi	r26, 0x00	; 0
     c52:	ea 2b       	or	r30, r26
     c54:	8f 2f       	mov	r24, r31
     c56:	91 2f       	mov	r25, r17
     c58:	99 0d       	add	r25, r9
     c5a:	e9 0f       	add	r30, r25
     c5c:	9e 2f       	mov	r25, r30
     c5e:	a2 2e       	mov	r10, r18
     c60:	b3 2e       	mov	r11, r19
     c62:	c4 2e       	mov	r12, r20
     c64:	d5 2e       	mov	r13, r21
     c66:	e6 2e       	mov	r14, r22
     c68:	f7 2e       	mov	r15, r23
     c6a:	08 2f       	mov	r16, r24
     c6c:	19 2f       	mov	r17, r25
     c6e:	08 c0       	rjmp	.+16     	; 0xc80 <image__compare_string_u8+0x242>
     c70:	aa 24       	eor	r10, r10
     c72:	bb 24       	eor	r11, r11
     c74:	cc 24       	eor	r12, r12
     c76:	dd 24       	eor	r13, r13
     c78:	ee 24       	eor	r14, r14
     c7a:	ff 24       	eor	r15, r15
     c7c:	00 e0       	ldi	r16, 0x00	; 0
     c7e:	10 e0       	ldi	r17, 0x00	; 0
     c80:	af 86       	std	Y+15, r10	; 0x0f
     c82:	b8 8a       	std	Y+16, r11	; 0x10
     c84:	c9 8a       	std	Y+17, r12	; 0x11
     c86:	da 8a       	std	Y+18, r13	; 0x12
     c88:	eb 8a       	std	Y+19, r14	; 0x13
     c8a:	fc 8a       	std	Y+20, r15	; 0x14
     c8c:	0d 8b       	std	Y+21, r16	; 0x15
     c8e:	1e 8b       	std	Y+22, r17	; 0x16
     c90:	8f 81       	ldd	r24, Y+7	; 0x07
     c92:	98 85       	ldd	r25, Y+8	; 0x08
     c94:	dc 01       	movw	r26, r24
     c96:	bc 91       	ld	r27, X
     c98:	bf 8b       	std	Y+23, r27	; 0x17
     c9a:	8f 81       	ldd	r24, Y+7	; 0x07
     c9c:	98 85       	ldd	r25, Y+8	; 0x08
     c9e:	fc 01       	movw	r30, r24
     ca0:	f1 81       	ldd	r31, Z+1	; 0x01
     ca2:	f8 8f       	std	Y+24, r31	; 0x18
     ca4:	28 8d       	ldd	r18, Y+24	; 0x18
     ca6:	4f 89       	ldd	r20, Y+23	; 0x17
     ca8:	24 17       	cp	r18, r20
     caa:	08 f4       	brcc	.+2      	; 0xcae <image__compare_string_u8+0x270>
     cac:	e7 c0       	rjmp	.+462    	; 0xe7c <image__compare_string_u8+0x43e>
     cae:	58 8d       	ldd	r21, Y+24	; 0x18
     cb0:	a5 2e       	mov	r10, r21
     cb2:	bb 24       	eor	r11, r11
     cb4:	cc 24       	eor	r12, r12
     cb6:	dd 24       	eor	r13, r13
     cb8:	ee 24       	eor	r14, r14
     cba:	ff 24       	eor	r15, r15
     cbc:	87 01       	movw	r16, r14
     cbe:	8f 89       	ldd	r24, Y+23	; 0x17
     cc0:	28 2e       	mov	r2, r24
     cc2:	33 24       	eor	r3, r3
     cc4:	44 24       	eor	r4, r4
     cc6:	55 24       	eor	r5, r5
     cc8:	66 24       	eor	r6, r6
     cca:	77 24       	eor	r7, r7
     ccc:	43 01       	movw	r8, r6
     cce:	2a 2d       	mov	r18, r10
     cd0:	22 19       	sub	r18, r2
     cd2:	e1 e0       	ldi	r30, 0x01	; 1
     cd4:	a2 16       	cp	r10, r18
     cd6:	08 f0       	brcs	.+2      	; 0xcda <image__compare_string_u8+0x29c>
     cd8:	e0 e0       	ldi	r30, 0x00	; 0
     cda:	3b 2d       	mov	r19, r11
     cdc:	33 19       	sub	r19, r3
     cde:	a1 e0       	ldi	r26, 0x01	; 1
     ce0:	b3 16       	cp	r11, r19
     ce2:	08 f0       	brcs	.+2      	; 0xce6 <image__compare_string_u8+0x2a8>
     ce4:	a0 e0       	ldi	r26, 0x00	; 0
     ce6:	f3 2f       	mov	r31, r19
     ce8:	fe 1b       	sub	r31, r30
     cea:	e1 e0       	ldi	r30, 0x01	; 1
     cec:	3f 17       	cp	r19, r31
     cee:	08 f0       	brcs	.+2      	; 0xcf2 <image__compare_string_u8+0x2b4>
     cf0:	e0 e0       	ldi	r30, 0x00	; 0
     cf2:	ae 2b       	or	r26, r30
     cf4:	3f 2f       	mov	r19, r31
     cf6:	4c 2d       	mov	r20, r12
     cf8:	44 19       	sub	r20, r4
     cfa:	b1 e0       	ldi	r27, 0x01	; 1
     cfc:	c4 16       	cp	r12, r20
     cfe:	08 f0       	brcs	.+2      	; 0xd02 <image__compare_string_u8+0x2c4>
     d00:	b0 e0       	ldi	r27, 0x00	; 0
     d02:	f4 2f       	mov	r31, r20
     d04:	fa 1b       	sub	r31, r26
     d06:	e1 e0       	ldi	r30, 0x01	; 1
     d08:	4f 17       	cp	r20, r31
     d0a:	08 f0       	brcs	.+2      	; 0xd0e <image__compare_string_u8+0x2d0>
     d0c:	e0 e0       	ldi	r30, 0x00	; 0
     d0e:	be 2b       	or	r27, r30
     d10:	4f 2f       	mov	r20, r31
     d12:	5d 2d       	mov	r21, r13
     d14:	55 19       	sub	r21, r5
     d16:	a1 e0       	ldi	r26, 0x01	; 1
     d18:	d5 16       	cp	r13, r21
     d1a:	08 f0       	brcs	.+2      	; 0xd1e <image__compare_string_u8+0x2e0>
     d1c:	a0 e0       	ldi	r26, 0x00	; 0
     d1e:	f5 2f       	mov	r31, r21
     d20:	fb 1b       	sub	r31, r27
     d22:	e1 e0       	ldi	r30, 0x01	; 1
     d24:	5f 17       	cp	r21, r31
     d26:	08 f0       	brcs	.+2      	; 0xd2a <image__compare_string_u8+0x2ec>
     d28:	e0 e0       	ldi	r30, 0x00	; 0
     d2a:	ae 2b       	or	r26, r30
     d2c:	5f 2f       	mov	r21, r31
     d2e:	6e 2d       	mov	r22, r14
     d30:	66 19       	sub	r22, r6
     d32:	b1 e0       	ldi	r27, 0x01	; 1
     d34:	e6 16       	cp	r14, r22
     d36:	08 f0       	brcs	.+2      	; 0xd3a <image__compare_string_u8+0x2fc>
     d38:	b0 e0       	ldi	r27, 0x00	; 0
     d3a:	f6 2f       	mov	r31, r22
     d3c:	fa 1b       	sub	r31, r26
     d3e:	e1 e0       	ldi	r30, 0x01	; 1
     d40:	6f 17       	cp	r22, r31
     d42:	08 f0       	brcs	.+2      	; 0xd46 <image__compare_string_u8+0x308>
     d44:	e0 e0       	ldi	r30, 0x00	; 0
     d46:	be 2b       	or	r27, r30
     d48:	6f 2f       	mov	r22, r31
     d4a:	7f 2d       	mov	r23, r15
     d4c:	77 19       	sub	r23, r7
     d4e:	a1 e0       	ldi	r26, 0x01	; 1
     d50:	f7 16       	cp	r15, r23
     d52:	08 f0       	brcs	.+2      	; 0xd56 <image__compare_string_u8+0x318>
     d54:	a0 e0       	ldi	r26, 0x00	; 0
     d56:	f7 2f       	mov	r31, r23
     d58:	fb 1b       	sub	r31, r27
     d5a:	e1 e0       	ldi	r30, 0x01	; 1
     d5c:	7f 17       	cp	r23, r31
     d5e:	08 f0       	brcs	.+2      	; 0xd62 <image__compare_string_u8+0x324>
     d60:	e0 e0       	ldi	r30, 0x00	; 0
     d62:	ae 2b       	or	r26, r30
     d64:	7f 2f       	mov	r23, r31
     d66:	80 2f       	mov	r24, r16
     d68:	88 19       	sub	r24, r8
     d6a:	f1 e0       	ldi	r31, 0x01	; 1
     d6c:	08 17       	cp	r16, r24
     d6e:	08 f0       	brcs	.+2      	; 0xd72 <image__compare_string_u8+0x334>
     d70:	f0 e0       	ldi	r31, 0x00	; 0
     d72:	b8 2f       	mov	r27, r24
     d74:	ba 1b       	sub	r27, r26
     d76:	ab 2f       	mov	r26, r27
     d78:	e1 e0       	ldi	r30, 0x01	; 1
     d7a:	8a 17       	cp	r24, r26
     d7c:	08 f0       	brcs	.+2      	; 0xd80 <image__compare_string_u8+0x342>
     d7e:	e0 e0       	ldi	r30, 0x00	; 0
     d80:	fe 2b       	or	r31, r30
     d82:	8a 2f       	mov	r24, r26
     d84:	91 2f       	mov	r25, r17
     d86:	99 19       	sub	r25, r9
     d88:	e9 2f       	mov	r30, r25
     d8a:	ef 1b       	sub	r30, r31
     d8c:	9e 2f       	mov	r25, r30
     d8e:	22 2e       	mov	r2, r18
     d90:	33 2e       	mov	r3, r19
     d92:	44 2e       	mov	r4, r20
     d94:	55 2e       	mov	r5, r21
     d96:	66 2e       	mov	r6, r22
     d98:	77 2e       	mov	r7, r23
     d9a:	88 2e       	mov	r8, r24
     d9c:	99 2e       	mov	r9, r25
     d9e:	21 e0       	ldi	r18, 0x01	; 1
     da0:	30 e0       	ldi	r19, 0x00	; 0
     da2:	40 e0       	ldi	r20, 0x00	; 0
     da4:	50 e0       	ldi	r21, 0x00	; 0
     da6:	60 e0       	ldi	r22, 0x00	; 0
     da8:	70 e0       	ldi	r23, 0x00	; 0
     daa:	80 e0       	ldi	r24, 0x00	; 0
     dac:	90 e0       	ldi	r25, 0x00	; 0
     dae:	a2 2c       	mov	r10, r2
     db0:	a2 0e       	add	r10, r18
     db2:	e1 e0       	ldi	r30, 0x01	; 1
     db4:	a2 14       	cp	r10, r2
     db6:	08 f0       	brcs	.+2      	; 0xdba <image__compare_string_u8+0x37c>
     db8:	e0 e0       	ldi	r30, 0x00	; 0
     dba:	b3 2c       	mov	r11, r3
     dbc:	b3 0e       	add	r11, r19
     dbe:	a1 e0       	ldi	r26, 0x01	; 1
     dc0:	b3 14       	cp	r11, r3
     dc2:	08 f0       	brcs	.+2      	; 0xdc6 <image__compare_string_u8+0x388>
     dc4:	a0 e0       	ldi	r26, 0x00	; 0
     dc6:	fe 2f       	mov	r31, r30
     dc8:	fb 0d       	add	r31, r11
     dca:	e1 e0       	ldi	r30, 0x01	; 1
     dcc:	fb 15       	cp	r31, r11
     dce:	08 f0       	brcs	.+2      	; 0xdd2 <image__compare_string_u8+0x394>
     dd0:	e0 e0       	ldi	r30, 0x00	; 0
     dd2:	ae 2b       	or	r26, r30
     dd4:	bf 2e       	mov	r11, r31
     dd6:	c4 2c       	mov	r12, r4
     dd8:	c4 0e       	add	r12, r20
     dda:	b1 e0       	ldi	r27, 0x01	; 1
     ddc:	c4 14       	cp	r12, r4
     dde:	08 f0       	brcs	.+2      	; 0xde2 <image__compare_string_u8+0x3a4>
     de0:	b0 e0       	ldi	r27, 0x00	; 0
     de2:	fa 2f       	mov	r31, r26
     de4:	fc 0d       	add	r31, r12
     de6:	e1 e0       	ldi	r30, 0x01	; 1
     de8:	fc 15       	cp	r31, r12
     dea:	08 f0       	brcs	.+2      	; 0xdee <image__compare_string_u8+0x3b0>
     dec:	e0 e0       	ldi	r30, 0x00	; 0
     dee:	be 2b       	or	r27, r30
     df0:	cf 2e       	mov	r12, r31
     df2:	d5 2c       	mov	r13, r5
     df4:	d5 0e       	add	r13, r21
     df6:	a1 e0       	ldi	r26, 0x01	; 1
     df8:	d5 14       	cp	r13, r5
     dfa:	08 f0       	brcs	.+2      	; 0xdfe <image__compare_string_u8+0x3c0>
     dfc:	a0 e0       	ldi	r26, 0x00	; 0
     dfe:	fb 2f       	mov	r31, r27
     e00:	fd 0d       	add	r31, r13
     e02:	e1 e0       	ldi	r30, 0x01	; 1
     e04:	fd 15       	cp	r31, r13
     e06:	08 f0       	brcs	.+2      	; 0xe0a <image__compare_string_u8+0x3cc>
     e08:	e0 e0       	ldi	r30, 0x00	; 0
     e0a:	ae 2b       	or	r26, r30
     e0c:	df 2e       	mov	r13, r31
     e0e:	e6 2c       	mov	r14, r6
     e10:	e6 0e       	add	r14, r22
     e12:	b1 e0       	ldi	r27, 0x01	; 1
     e14:	e6 14       	cp	r14, r6
     e16:	08 f0       	brcs	.+2      	; 0xe1a <image__compare_string_u8+0x3dc>
     e18:	b0 e0       	ldi	r27, 0x00	; 0
     e1a:	fa 2f       	mov	r31, r26
     e1c:	fe 0d       	add	r31, r14
     e1e:	e1 e0       	ldi	r30, 0x01	; 1
     e20:	fe 15       	cp	r31, r14
     e22:	08 f0       	brcs	.+2      	; 0xe26 <image__compare_string_u8+0x3e8>
     e24:	e0 e0       	ldi	r30, 0x00	; 0
     e26:	be 2b       	or	r27, r30
     e28:	ef 2e       	mov	r14, r31
     e2a:	f7 2c       	mov	r15, r7
     e2c:	f7 0e       	add	r15, r23
     e2e:	a1 e0       	ldi	r26, 0x01	; 1
     e30:	f7 14       	cp	r15, r7
     e32:	08 f0       	brcs	.+2      	; 0xe36 <image__compare_string_u8+0x3f8>
     e34:	a0 e0       	ldi	r26, 0x00	; 0
     e36:	fb 2f       	mov	r31, r27
     e38:	ff 0d       	add	r31, r15
     e3a:	e1 e0       	ldi	r30, 0x01	; 1
     e3c:	ff 15       	cp	r31, r15
     e3e:	08 f0       	brcs	.+2      	; 0xe42 <image__compare_string_u8+0x404>
     e40:	e0 e0       	ldi	r30, 0x00	; 0
     e42:	ae 2b       	or	r26, r30
     e44:	ff 2e       	mov	r15, r31
     e46:	08 2d       	mov	r16, r8
     e48:	08 0f       	add	r16, r24
     e4a:	f1 e0       	ldi	r31, 0x01	; 1
     e4c:	08 15       	cp	r16, r8
     e4e:	08 f0       	brcs	.+2      	; 0xe52 <image__compare_string_u8+0x414>
     e50:	f0 e0       	ldi	r31, 0x00	; 0
     e52:	a0 0f       	add	r26, r16
     e54:	e1 e0       	ldi	r30, 0x01	; 1
     e56:	a0 17       	cp	r26, r16
     e58:	08 f0       	brcs	.+2      	; 0xe5c <image__compare_string_u8+0x41e>
     e5a:	e0 e0       	ldi	r30, 0x00	; 0
     e5c:	fe 2b       	or	r31, r30
     e5e:	0a 2f       	mov	r16, r26
     e60:	19 2d       	mov	r17, r9
     e62:	19 0f       	add	r17, r25
     e64:	8f 2f       	mov	r24, r31
     e66:	81 0f       	add	r24, r17
     e68:	18 2f       	mov	r17, r24
     e6a:	2a 2d       	mov	r18, r10
     e6c:	3b 2d       	mov	r19, r11
     e6e:	4c 2d       	mov	r20, r12
     e70:	5d 2d       	mov	r21, r13
     e72:	6e 2d       	mov	r22, r14
     e74:	7f 2d       	mov	r23, r15
     e76:	80 2f       	mov	r24, r16
     e78:	91 2f       	mov	r25, r17
     e7a:	08 c0       	rjmp	.+16     	; 0xe8c <image__compare_string_u8+0x44e>
     e7c:	20 e0       	ldi	r18, 0x00	; 0
     e7e:	30 e0       	ldi	r19, 0x00	; 0
     e80:	40 e0       	ldi	r20, 0x00	; 0
     e82:	50 e0       	ldi	r21, 0x00	; 0
     e84:	60 e0       	ldi	r22, 0x00	; 0
     e86:	70 e0       	ldi	r23, 0x00	; 0
     e88:	80 e0       	ldi	r24, 0x00	; 0
     e8a:	90 e0       	ldi	r25, 0x00	; 0
     e8c:	a2 2e       	mov	r10, r18
     e8e:	b3 2e       	mov	r11, r19
     e90:	c4 2e       	mov	r12, r20
     e92:	d5 2e       	mov	r13, r21
     e94:	e6 2e       	mov	r14, r22
     e96:	f7 2e       	mov	r15, r23
     e98:	08 2f       	mov	r16, r24
     e9a:	19 2f       	mov	r17, r25
     e9c:	ed 85       	ldd	r30, Y+13	; 0x0d
     e9e:	8e 2f       	mov	r24, r30
     ea0:	90 e0       	ldi	r25, 0x00	; 0
     ea2:	ff 89       	ldd	r31, Y+23	; 0x17
     ea4:	2f 2f       	mov	r18, r31
     ea6:	30 e0       	ldi	r19, 0x00	; 0
      Return_Test : Boolean := True;
     ea8:	41 e0       	ldi	r20, 0x01	; 1
     eaa:	49 83       	std	Y+1, r20	; 0x01
   begin
      if Left'Length /= Right'Length then
     eac:	4f 85       	ldd	r20, Y+15	; 0x0f
     eae:	a4 16       	cp	r10, r20
     eb0:	09 f0       	breq	.+2      	; 0xeb4 <image__compare_string_u8+0x476>
     eb2:	50 c0       	rjmp	.+160    	; 0xf54 <image__compare_string_u8+0x516>
     eb4:	58 89       	ldd	r21, Y+16	; 0x10
     eb6:	b5 16       	cp	r11, r21
     eb8:	09 f0       	breq	.+2      	; 0xebc <image__compare_string_u8+0x47e>
     eba:	4c c0       	rjmp	.+152    	; 0xf54 <image__compare_string_u8+0x516>
     ebc:	a9 89       	ldd	r26, Y+17	; 0x11
     ebe:	ca 16       	cp	r12, r26
     ec0:	09 f0       	breq	.+2      	; 0xec4 <image__compare_string_u8+0x486>
     ec2:	48 c0       	rjmp	.+144    	; 0xf54 <image__compare_string_u8+0x516>
     ec4:	ba 89       	ldd	r27, Y+18	; 0x12
     ec6:	db 16       	cp	r13, r27
     ec8:	09 f0       	breq	.+2      	; 0xecc <image__compare_string_u8+0x48e>
     eca:	44 c0       	rjmp	.+136    	; 0xf54 <image__compare_string_u8+0x516>
     ecc:	eb 89       	ldd	r30, Y+19	; 0x13
     ece:	ee 16       	cp	r14, r30
     ed0:	09 f0       	breq	.+2      	; 0xed4 <image__compare_string_u8+0x496>
     ed2:	40 c0       	rjmp	.+128    	; 0xf54 <image__compare_string_u8+0x516>
     ed4:	fc 89       	ldd	r31, Y+20	; 0x14
     ed6:	ff 16       	cp	r15, r31
     ed8:	09 f0       	breq	.+2      	; 0xedc <image__compare_string_u8+0x49e>
     eda:	3c c0       	rjmp	.+120    	; 0xf54 <image__compare_string_u8+0x516>
     edc:	4d 89       	ldd	r20, Y+21	; 0x15
     ede:	04 17       	cp	r16, r20
     ee0:	c9 f5       	brne	.+114    	; 0xf54 <image__compare_string_u8+0x516>
     ee2:	5e 89       	ldd	r21, Y+22	; 0x16
     ee4:	15 17       	cp	r17, r21
     ee6:	b1 f5       	brne	.+108    	; 0xf54 <image__compare_string_u8+0x516>
         raise Constraint_Error;
      end if;

      for Index in Left'Range loop
     ee8:	af 89       	ldd	r26, Y+23	; 0x17
     eea:	ab 83       	std	Y+3, r26	; 0x03
     eec:	b8 8d       	ldd	r27, Y+24	; 0x18
     eee:	bc 83       	std	Y+4, r27	; 0x04
     ef0:	5b 81       	ldd	r21, Y+3	; 0x03
     ef2:	4c 81       	ldd	r20, Y+4	; 0x04
     ef4:	45 17       	cp	r20, r21
     ef6:	60 f1       	brcs	.+88     	; 0xf50 <image__compare_string_u8+0x512>
     ef8:	4b 81       	ldd	r20, Y+3	; 0x03
     efa:	4a 83       	std	Y+2, r20	; 0x02
         if Left (Index) /= Right (Index) then
     efc:	4a 81       	ldd	r20, Y+2	; 0x02
     efe:	ed 85       	ldd	r30, Y+13	; 0x0d
     f00:	4e 17       	cp	r20, r30
     f02:	48 f1       	brcs	.+82     	; 0xf56 <image__compare_string_u8+0x518>
     f04:	4a 81       	ldd	r20, Y+2	; 0x02
     f06:	fe 85       	ldd	r31, Y+14	; 0x0e
     f08:	f4 17       	cp	r31, r20
     f0a:	28 f1       	brcs	.+74     	; 0xf56 <image__compare_string_u8+0x518>
     f0c:	6d 81       	ldd	r22, Y+5	; 0x05
     f0e:	7e 81       	ldd	r23, Y+6	; 0x06
     f10:	4a 81       	ldd	r20, Y+2	; 0x02
     f12:	44 2f       	mov	r20, r20
     f14:	50 e0       	ldi	r21, 0x00	; 0
     f16:	42 1b       	sub	r20, r18
     f18:	53 0b       	sbc	r21, r19
     f1a:	46 0f       	add	r20, r22
     f1c:	57 1f       	adc	r21, r23
     f1e:	da 01       	movw	r26, r20
     f20:	ec 91       	ld	r30, X
     f22:	69 85       	ldd	r22, Y+9	; 0x09
     f24:	7a 85       	ldd	r23, Y+10	; 0x0a
     f26:	4a 81       	ldd	r20, Y+2	; 0x02
     f28:	44 2f       	mov	r20, r20
     f2a:	50 e0       	ldi	r21, 0x00	; 0
     f2c:	48 1b       	sub	r20, r24
     f2e:	59 0b       	sbc	r21, r25
     f30:	46 0f       	add	r20, r22
     f32:	57 1f       	adc	r21, r23
     f34:	da 01       	movw	r26, r20
     f36:	4c 91       	ld	r20, X
     f38:	e4 17       	cp	r30, r20
     f3a:	11 f0       	breq	.+4      	; 0xf40 <image__compare_string_u8+0x502>
            Return_Test := False;
     f3c:	19 82       	std	Y+1, r1	; 0x01
            exit;
     f3e:	08 c0       	rjmp	.+16     	; 0xf50 <image__compare_string_u8+0x512>
   begin
      if Left'Length /= Right'Length then
         raise Constraint_Error;
      end if;

      for Index in Left'Range loop
     f40:	5a 81       	ldd	r21, Y+2	; 0x02
     f42:	4c 81       	ldd	r20, Y+4	; 0x04
     f44:	54 17       	cp	r21, r20
     f46:	21 f0       	breq	.+8      	; 0xf50 <image__compare_string_u8+0x512>
     f48:	4a 81       	ldd	r20, Y+2	; 0x02
     f4a:	4f 5f       	subi	r20, 0xFF	; 255
     f4c:	4a 83       	std	Y+2, r20	; 0x02
         if Left (Index) /= Right (Index) then
            Return_Test := False;
            exit;
         end if;
      end loop;
     f4e:	d6 cf       	rjmp	.-84     	; 0xefc <image__compare_string_u8+0x4be>

      return Return_Test;
     f50:	89 81       	ldd	r24, Y+1	; 0x01
     f52:	02 c0       	rjmp	.+4      	; 0xf58 <image__compare_string_u8+0x51a>

   function Compare_String_U8 (Left, Right : in String_U8) return Boolean is
      Return_Test : Boolean := True;
   begin
      if Left'Length /= Right'Length then
         raise Constraint_Error;
     f54:	00 00       	nop
         end if;
      end loop;

      return Return_Test;
   exception
      when others => return False;
     f56:	80 e0       	ldi	r24, 0x00	; 0
   end Compare_String_U8;
     f58:	00 00       	nop
     f5a:	68 96       	adiw	r28, 0x18	; 24
     f5c:	0f b6       	in	r0, 0x3f	; 63
     f5e:	f8 94       	cli
     f60:	de bf       	out	0x3e, r29	; 62
     f62:	0f be       	out	0x3f, r0	; 63
     f64:	cd bf       	out	0x3d, r28	; 61
     f66:	cf 91       	pop	r28
     f68:	df 91       	pop	r29
     f6a:	1f 91       	pop	r17
     f6c:	0f 91       	pop	r16
     f6e:	ff 90       	pop	r15
     f70:	ef 90       	pop	r14
     f72:	df 90       	pop	r13
     f74:	cf 90       	pop	r12
     f76:	bf 90       	pop	r11
     f78:	af 90       	pop	r10
     f7a:	9f 90       	pop	r9
     f7c:	8f 90       	pop	r8
     f7e:	7f 90       	pop	r7
     f80:	6f 90       	pop	r6
     f82:	5f 90       	pop	r5
     f84:	4f 90       	pop	r4
     f86:	3f 90       	pop	r3
     f88:	2f 90       	pop	r2
     f8a:	08 95       	ret

00000f8c <avr__usart__usart_control_and_register_status_register_a_typeIP>:
     f8c:	df 93       	push	r29
     f8e:	cf 93       	push	r28
     f90:	0f 92       	push	r0
     f92:	cd b7       	in	r28, 0x3d	; 61
     f94:	de b7       	in	r29, 0x3e	; 62
     f96:	89 83       	std	Y+1, r24	; 0x01
     f98:	89 81       	ldd	r24, Y+1	; 0x01
     f9a:	00 00       	nop
     f9c:	0f 90       	pop	r0
     f9e:	cf 91       	pop	r28
     fa0:	df 91       	pop	r29
     fa2:	08 95       	ret

00000fa4 <avr__usart__usart_control_and_register_status_register_b_typeIP>:
     fa4:	df 93       	push	r29
     fa6:	cf 93       	push	r28
     fa8:	0f 92       	push	r0
     faa:	cd b7       	in	r28, 0x3d	; 61
     fac:	de b7       	in	r29, 0x3e	; 62
     fae:	89 83       	std	Y+1, r24	; 0x01
     fb0:	89 81       	ldd	r24, Y+1	; 0x01
     fb2:	00 00       	nop
     fb4:	0f 90       	pop	r0
     fb6:	cf 91       	pop	r28
     fb8:	df 91       	pop	r29
     fba:	08 95       	ret

00000fbc <avr__usart__usart_control_and_register_status_register_c_typeIP>:
     fbc:	df 93       	push	r29
     fbe:	cf 93       	push	r28
     fc0:	0f 92       	push	r0
     fc2:	cd b7       	in	r28, 0x3d	; 61
     fc4:	de b7       	in	r29, 0x3e	; 62
     fc6:	89 83       	std	Y+1, r24	; 0x01
     fc8:	89 81       	ldd	r24, Y+1	; 0x01
     fca:	00 00       	nop
     fcc:	0f 90       	pop	r0
     fce:	cf 91       	pop	r28
     fd0:	df 91       	pop	r29
     fd2:	08 95       	ret

00000fd4 <avr__usart__usart_typeIP>:
     fd4:	2f 92       	push	r2
     fd6:	3f 92       	push	r3
     fd8:	4f 92       	push	r4
     fda:	5f 92       	push	r5
     fdc:	6f 92       	push	r6
     fde:	7f 92       	push	r7
     fe0:	8f 92       	push	r8
     fe2:	9f 92       	push	r9
     fe4:	af 92       	push	r10
     fe6:	bf 92       	push	r11
     fe8:	cf 92       	push	r12
     fea:	df 92       	push	r13
     fec:	ef 92       	push	r14
     fee:	ff 92       	push	r15
     ff0:	0f 93       	push	r16
     ff2:	1f 93       	push	r17
     ff4:	df 93       	push	r29
     ff6:	cf 93       	push	r28
     ff8:	cd b7       	in	r28, 0x3d	; 61
     ffa:	de b7       	in	r29, 0x3e	; 62
     ffc:	2e 97       	sbiw	r28, 0x0e	; 14
     ffe:	0f b6       	in	r0, 0x3f	; 63
    1000:	f8 94       	cli
    1002:	de bf       	out	0x3e, r29	; 62
    1004:	0f be       	out	0x3f, r0	; 63
    1006:	cd bf       	out	0x3d, r28	; 61
    1008:	28 87       	std	Y+8, r18	; 0x08
    100a:	39 87       	std	Y+9, r19	; 0x09
    100c:	4a 87       	std	Y+10, r20	; 0x0a
    100e:	5b 87       	std	Y+11, r21	; 0x0b
    1010:	6c 87       	std	Y+12, r22	; 0x0c
    1012:	7d 87       	std	Y+13, r23	; 0x0d
    1014:	8e 87       	std	Y+14, r24	; 0x0e
    1016:	ce 01       	movw	r24, r28
    1018:	01 96       	adiw	r24, 0x01	; 1
    101a:	9e 01       	movw	r18, r28
    101c:	28 5f       	subi	r18, 0xF8	; 248
    101e:	3f 4f       	sbci	r19, 0xFF	; 255
    1020:	47 e0       	ldi	r20, 0x07	; 7
    1022:	f9 01       	movw	r30, r18
    1024:	00 80       	ld	r0, Z
    1026:	2f 5f       	subi	r18, 0xFF	; 255
    1028:	3f 4f       	sbci	r19, 0xFF	; 255
    102a:	fc 01       	movw	r30, r24
    102c:	00 82       	st	Z, r0
    102e:	01 96       	adiw	r24, 0x01	; 1
    1030:	41 50       	subi	r20, 0x01	; 1
    1032:	44 23       	and	r20, r20
    1034:	b1 f7       	brne	.-20     	; 0x1022 <__stack+0x22>
    1036:	69 81       	ldd	r22, Y+1	; 0x01
    1038:	5a 81       	ldd	r21, Y+2	; 0x02
    103a:	4b 81       	ldd	r20, Y+3	; 0x03
    103c:	3c 81       	ldd	r19, Y+4	; 0x04
    103e:	2d 81       	ldd	r18, Y+5	; 0x05
    1040:	9e 81       	ldd	r25, Y+6	; 0x06
    1042:	8f 81       	ldd	r24, Y+7	; 0x07
    1044:	26 2e       	mov	r2, r22
    1046:	35 2e       	mov	r3, r21
    1048:	44 2e       	mov	r4, r20
    104a:	53 2e       	mov	r5, r19
    104c:	62 2e       	mov	r6, r18
    104e:	79 2e       	mov	r7, r25
    1050:	88 2e       	mov	r8, r24
    1052:	a2 2c       	mov	r10, r2
    1054:	b3 2c       	mov	r11, r3
    1056:	c4 2c       	mov	r12, r4
    1058:	d5 2c       	mov	r13, r5
    105a:	e6 2c       	mov	r14, r6
    105c:	f7 2c       	mov	r15, r7
    105e:	08 2d       	mov	r16, r8
    1060:	19 2d       	mov	r17, r9
    1062:	2a 2d       	mov	r18, r10
    1064:	3b 2d       	mov	r19, r11
    1066:	4c 2d       	mov	r20, r12
    1068:	5d 2d       	mov	r21, r13
    106a:	6e 2d       	mov	r22, r14
    106c:	7f 2d       	mov	r23, r15
    106e:	80 2f       	mov	r24, r16
    1070:	91 2f       	mov	r25, r17
    1072:	2e 96       	adiw	r28, 0x0e	; 14
    1074:	0f b6       	in	r0, 0x3f	; 63
    1076:	f8 94       	cli
    1078:	de bf       	out	0x3e, r29	; 62
    107a:	0f be       	out	0x3f, r0	; 63
    107c:	cd bf       	out	0x3d, r28	; 61
    107e:	cf 91       	pop	r28
    1080:	df 91       	pop	r29
    1082:	1f 91       	pop	r17
    1084:	0f 91       	pop	r16
    1086:	ff 90       	pop	r15
    1088:	ef 90       	pop	r14
    108a:	df 90       	pop	r13
    108c:	cf 90       	pop	r12
    108e:	bf 90       	pop	r11
    1090:	af 90       	pop	r10
    1092:	9f 90       	pop	r9
    1094:	8f 90       	pop	r8
    1096:	7f 90       	pop	r7
    1098:	6f 90       	pop	r6
    109a:	5f 90       	pop	r5
    109c:	4f 90       	pop	r4
    109e:	3f 90       	pop	r3
    10a0:	2f 90       	pop	r2
    10a2:	08 95       	ret

000010a4 <avr__usart__data_bits_typeRP>:
    10a4:	df 93       	push	r29
    10a6:	cf 93       	push	r28
    10a8:	0f 92       	push	r0
    10aa:	0f 92       	push	r0
    10ac:	cd b7       	in	r28, 0x3d	; 61
    10ae:	de b7       	in	r29, 0x3e	; 62
    10b0:	89 83       	std	Y+1, r24	; 0x01
    10b2:	6a 83       	std	Y+2, r22	; 0x02
    10b4:	89 81       	ldd	r24, Y+1	; 0x01
    10b6:	88 2f       	mov	r24, r24
    10b8:	90 e0       	ldi	r25, 0x00	; 0
    10ba:	82 30       	cpi	r24, 0x02	; 2
    10bc:	91 05       	cpc	r25, r1
    10be:	b1 f0       	breq	.+44     	; 0x10ec <avr__usart__data_bits_typeRP+0x48>
    10c0:	83 30       	cpi	r24, 0x03	; 3
    10c2:	91 05       	cpc	r25, r1
    10c4:	30 f4       	brcc	.+12     	; 0x10d2 <avr__usart__data_bits_typeRP+0x2e>
    10c6:	00 97       	sbiw	r24, 0x00	; 0
    10c8:	59 f0       	breq	.+22     	; 0x10e0 <avr__usart__data_bits_typeRP+0x3c>
    10ca:	81 30       	cpi	r24, 0x01	; 1
    10cc:	91 05       	cpc	r25, r1
    10ce:	59 f0       	breq	.+22     	; 0x10e6 <avr__usart__data_bits_typeRP+0x42>
    10d0:	16 c0       	rjmp	.+44     	; 0x10fe <avr__usart__data_bits_typeRP+0x5a>
    10d2:	83 30       	cpi	r24, 0x03	; 3
    10d4:	91 05       	cpc	r25, r1
    10d6:	69 f0       	breq	.+26     	; 0x10f2 <avr__usart__data_bits_typeRP+0x4e>
    10d8:	87 30       	cpi	r24, 0x07	; 7
    10da:	91 05       	cpc	r25, r1
    10dc:	69 f0       	breq	.+26     	; 0x10f8 <avr__usart__data_bits_typeRP+0x54>
    10de:	0f c0       	rjmp	.+30     	; 0x10fe <avr__usart__data_bits_typeRP+0x5a>
    10e0:	80 e0       	ldi	r24, 0x00	; 0
    10e2:	90 e0       	ldi	r25, 0x00	; 0
    10e4:	0e c0       	rjmp	.+28     	; 0x1102 <avr__usart__data_bits_typeRP+0x5e>
    10e6:	81 e0       	ldi	r24, 0x01	; 1
    10e8:	90 e0       	ldi	r25, 0x00	; 0
    10ea:	0b c0       	rjmp	.+22     	; 0x1102 <avr__usart__data_bits_typeRP+0x5e>
    10ec:	82 e0       	ldi	r24, 0x02	; 2
    10ee:	90 e0       	ldi	r25, 0x00	; 0
    10f0:	08 c0       	rjmp	.+16     	; 0x1102 <avr__usart__data_bits_typeRP+0x5e>
    10f2:	83 e0       	ldi	r24, 0x03	; 3
    10f4:	90 e0       	ldi	r25, 0x00	; 0
    10f6:	05 c0       	rjmp	.+10     	; 0x1102 <avr__usart__data_bits_typeRP+0x5e>
    10f8:	84 e0       	ldi	r24, 0x04	; 4
    10fa:	90 e0       	ldi	r25, 0x00	; 0
    10fc:	02 c0       	rjmp	.+4      	; 0x1102 <avr__usart__data_bits_typeRP+0x5e>
    10fe:	8f ef       	ldi	r24, 0xFF	; 255
    1100:	9f ef       	ldi	r25, 0xFF	; 255
    1102:	00 00       	nop
    1104:	0f 90       	pop	r0
    1106:	0f 90       	pop	r0
    1108:	cf 91       	pop	r28
    110a:	df 91       	pop	r29
    110c:	08 95       	ret

0000110e <avr__usart__setup_typeIP>:
    110e:	df 93       	push	r29
    1110:	cf 93       	push	r28
    1112:	0f 92       	push	r0
    1114:	0f 92       	push	r0
    1116:	cd b7       	in	r28, 0x3d	; 61
    1118:	de b7       	in	r29, 0x3e	; 62
    111a:	9a 83       	std	Y+2, r25	; 0x02
    111c:	89 83       	std	Y+1, r24	; 0x01
    111e:	0f 90       	pop	r0
    1120:	0f 90       	pop	r0
    1122:	cf 91       	pop	r28
    1124:	df 91       	pop	r29
    1126:	08 95       	ret

00001128 <avr__usart__Tpriv_setupBIP>:
    1128:	df 93       	push	r29
    112a:	cf 93       	push	r28
    112c:	00 d0       	rcall	.+0      	; 0x112e <avr__usart__Tpriv_setupBIP+0x6>
    112e:	0f 92       	push	r0
    1130:	cd b7       	in	r28, 0x3d	; 61
    1132:	de b7       	in	r29, 0x3e	; 62
    1134:	69 83       	std	Y+1, r22	; 0x01
    1136:	7a 83       	std	Y+2, r23	; 0x02
    1138:	8b 83       	std	Y+3, r24	; 0x03
    113a:	9c 83       	std	Y+4, r25	; 0x04
    113c:	0f 90       	pop	r0
    113e:	0f 90       	pop	r0
    1140:	0f 90       	pop	r0
    1142:	0f 90       	pop	r0
    1144:	cf 91       	pop	r28
    1146:	df 91       	pop	r29
    1148:	08 95       	ret

0000114a <avr__usart__Tbuffer_64_typeBIP>:
    114a:	df 93       	push	r29
    114c:	cf 93       	push	r28
    114e:	00 d0       	rcall	.+0      	; 0x1150 <avr__usart__Tbuffer_64_typeBIP+0x6>
    1150:	0f 92       	push	r0
    1152:	cd b7       	in	r28, 0x3d	; 61
    1154:	de b7       	in	r29, 0x3e	; 62
    1156:	69 83       	std	Y+1, r22	; 0x01
    1158:	7a 83       	std	Y+2, r23	; 0x02
    115a:	8b 83       	std	Y+3, r24	; 0x03
    115c:	9c 83       	std	Y+4, r25	; 0x04
    115e:	0f 90       	pop	r0
    1160:	0f 90       	pop	r0
    1162:	0f 90       	pop	r0
    1164:	0f 90       	pop	r0
    1166:	cf 91       	pop	r28
    1168:	df 91       	pop	r29
    116a:	08 95       	ret

0000116c <avr__usart__Tbuffer_64_array_port_typeBIP>:
    116c:	df 93       	push	r29
    116e:	cf 93       	push	r28
    1170:	00 d0       	rcall	.+0      	; 0x1172 <avr__usart__Tbuffer_64_array_port_typeBIP+0x6>
    1172:	0f 92       	push	r0
    1174:	cd b7       	in	r28, 0x3d	; 61
    1176:	de b7       	in	r29, 0x3e	; 62
    1178:	69 83       	std	Y+1, r22	; 0x01
    117a:	7a 83       	std	Y+2, r23	; 0x02
    117c:	8b 83       	std	Y+3, r24	; 0x03
    117e:	9c 83       	std	Y+4, r25	; 0x04
    1180:	0f 90       	pop	r0
    1182:	0f 90       	pop	r0
    1184:	0f 90       	pop	r0
    1186:	0f 90       	pop	r0
    1188:	cf 91       	pop	r28
    118a:	df 91       	pop	r29
    118c:	08 95       	ret

0000118e <avr__usart__initialize__set_sync_mode.1916>:
     (In_Port  : Port_Type := USART_PORT_DEFAULT;
      In_Setup : Setup_Type := USART_SETUP_DEFAULT)
   is
      UBRR_Value : Unsigned_16;

      procedure Set_Sync_Mode is
    118e:	2f 92       	push	r2
    1190:	3f 92       	push	r3
    1192:	df 93       	push	r29
    1194:	cf 93       	push	r28
    1196:	0f 92       	push	r0
    1198:	0f 92       	push	r0
    119a:	cd b7       	in	r28, 0x3d	; 61
    119c:	de b7       	in	r29, 0x3e	; 62
    119e:	c1 01       	movw	r24, r2
    11a0:	3a 82       	std	Y+2, r3	; 0x02
    11a2:	29 82       	std	Y+1, r2	; 0x01
      begin
         case In_Port is
    11a4:	fc 01       	movw	r30, r24
    11a6:	24 81       	ldd	r18, Z+4	; 0x04
    11a8:	22 2f       	mov	r18, r18
    11aa:	30 e0       	ldi	r19, 0x00	; 0
    11ac:	40 e0       	ldi	r20, 0x00	; 0
    11ae:	50 e0       	ldi	r21, 0x00	; 0
    11b0:	24 30       	cpi	r18, 0x04	; 4
    11b2:	31 05       	cpc	r19, r1
    11b4:	41 05       	cpc	r20, r1
    11b6:	51 05       	cpc	r21, r1
    11b8:	08 f0       	brcs	.+2      	; 0x11bc <avr__usart__initialize__set_sync_mode.1916+0x2e>
    11ba:	8c c1       	rjmp	.+792    	; 0x14d4 <avr__usart__initialize__set_sync_mode.1916+0x346>
    11bc:	fc 01       	movw	r30, r24
    11be:	24 81       	ldd	r18, Z+4	; 0x04
    11c0:	21 30       	cpi	r18, 0x01	; 1
    11c2:	09 f4       	brne	.+2      	; 0x11c6 <avr__usart__initialize__set_sync_mode.1916+0x38>
    11c4:	66 c0       	rjmp	.+204    	; 0x1292 <avr__usart__initialize__set_sync_mode.1916+0x104>
    11c6:	21 30       	cpi	r18, 0x01	; 1
    11c8:	20 f0       	brcs	.+8      	; 0x11d2 <avr__usart__initialize__set_sync_mode.1916+0x44>
    11ca:	22 30       	cpi	r18, 0x02	; 2
    11cc:	09 f4       	brne	.+2      	; 0x11d0 <avr__usart__initialize__set_sync_mode.1916+0x42>
    11ce:	c1 c0       	rjmp	.+386    	; 0x1352 <avr__usart__initialize__set_sync_mode.1916+0x1c4>
    11d0:	20 c1       	rjmp	.+576    	; 0x1412 <avr__usart__initialize__set_sync_mode.1916+0x284>
            when USART0 =>
               case In_Setup.Sync_Mode is
    11d2:	fc 01       	movw	r30, r24
    11d4:	22 81       	ldd	r18, Z+2	; 0x02
    11d6:	33 81       	ldd	r19, Z+3	; 0x03
    11d8:	f9 01       	movw	r30, r18
    11da:	20 81       	ld	r18, Z
    11dc:	22 2f       	mov	r18, r18
    11de:	30 e0       	ldi	r19, 0x00	; 0
    11e0:	40 e0       	ldi	r20, 0x00	; 0
    11e2:	50 e0       	ldi	r21, 0x00	; 0
    11e4:	23 30       	cpi	r18, 0x03	; 3
    11e6:	31 05       	cpc	r19, r1
    11e8:	41 05       	cpc	r20, r1
    11ea:	51 05       	cpc	r21, r1
    11ec:	08 f0       	brcs	.+2      	; 0x11f0 <avr__usart__initialize__set_sync_mode.1916+0x62>
    11ee:	72 c1       	rjmp	.+740    	; 0x14d4 <avr__usart__initialize__set_sync_mode.1916+0x346>
    11f0:	fc 01       	movw	r30, r24
    11f2:	82 81       	ldd	r24, Z+2	; 0x02
    11f4:	93 81       	ldd	r25, Z+3	; 0x03
    11f6:	fc 01       	movw	r30, r24
    11f8:	80 81       	ld	r24, Z
    11fa:	88 23       	and	r24, r24
    11fc:	19 f0       	breq	.+6      	; 0x1204 <avr__usart__initialize__set_sync_mode.1916+0x76>
    11fe:	81 30       	cpi	r24, 0x01	; 1
    1200:	19 f0       	breq	.+6      	; 0x1208 <avr__usart__initialize__set_sync_mode.1916+0x7a>
    1202:	19 c0       	rjmp	.+50     	; 0x1236 <avr__usart__initialize__set_sync_mode.1916+0xa8>
                  when ASYNCHRONOUS => null;
    1204:	00 00       	nop
                     Reg_USART0.UCSRC.UMSEL (0) := TRUE;

                  when MASTER_SPI =>
                     Reg_USART0.UCSRC.UMSEL (0) := TRUE;
                     Reg_USART0.UCSRC.UMSEL (1) := TRUE;
               end case;
    1206:	43 c0       	rjmp	.+134    	; 0x128e <avr__usart__initialize__set_sync_mode.1916+0x100>
         case In_Port is
            when USART0 =>
               case In_Setup.Sync_Mode is
                  when ASYNCHRONOUS => null;
                  when SYNCHRONOUS =>
                     Reg_USART0.UCSRC.UMSEL (0) := TRUE;
    1208:	80 ec       	ldi	r24, 0xC0	; 192
    120a:	90 e0       	ldi	r25, 0x00	; 0
    120c:	20 ec       	ldi	r18, 0xC0	; 192
    120e:	30 e0       	ldi	r19, 0x00	; 0
    1210:	f9 01       	movw	r30, r18
    1212:	22 81       	ldd	r18, Z+2	; 0x02
    1214:	22 95       	swap	r18
    1216:	26 95       	lsr	r18
    1218:	26 95       	lsr	r18
    121a:	23 70       	andi	r18, 0x03	; 3
    121c:	21 60       	ori	r18, 0x01	; 1
    121e:	23 70       	andi	r18, 0x03	; 3
    1220:	22 95       	swap	r18
    1222:	22 0f       	add	r18, r18
    1224:	22 0f       	add	r18, r18
    1226:	20 7c       	andi	r18, 0xC0	; 192
    1228:	fc 01       	movw	r30, r24
    122a:	32 81       	ldd	r19, Z+2	; 0x02
    122c:	3f 73       	andi	r19, 0x3F	; 63
    122e:	23 2b       	or	r18, r19
    1230:	fc 01       	movw	r30, r24
    1232:	22 83       	std	Z+2, r18	; 0x02

                  when MASTER_SPI =>
                     Reg_USART0.UCSRC.UMSEL (0) := TRUE;
                     Reg_USART0.UCSRC.UMSEL (1) := TRUE;
               end case;
    1234:	2c c0       	rjmp	.+88     	; 0x128e <avr__usart__initialize__set_sync_mode.1916+0x100>
                  when ASYNCHRONOUS => null;
                  when SYNCHRONOUS =>
                     Reg_USART0.UCSRC.UMSEL (0) := TRUE;

                  when MASTER_SPI =>
                     Reg_USART0.UCSRC.UMSEL (0) := TRUE;
    1236:	80 ec       	ldi	r24, 0xC0	; 192
    1238:	90 e0       	ldi	r25, 0x00	; 0
    123a:	20 ec       	ldi	r18, 0xC0	; 192
    123c:	30 e0       	ldi	r19, 0x00	; 0
    123e:	f9 01       	movw	r30, r18
    1240:	22 81       	ldd	r18, Z+2	; 0x02
    1242:	22 95       	swap	r18
    1244:	26 95       	lsr	r18
    1246:	26 95       	lsr	r18
    1248:	23 70       	andi	r18, 0x03	; 3
    124a:	21 60       	ori	r18, 0x01	; 1
    124c:	23 70       	andi	r18, 0x03	; 3
    124e:	22 95       	swap	r18
    1250:	22 0f       	add	r18, r18
    1252:	22 0f       	add	r18, r18
    1254:	20 7c       	andi	r18, 0xC0	; 192
    1256:	fc 01       	movw	r30, r24
    1258:	32 81       	ldd	r19, Z+2	; 0x02
    125a:	3f 73       	andi	r19, 0x3F	; 63
    125c:	23 2b       	or	r18, r19
    125e:	fc 01       	movw	r30, r24
    1260:	22 83       	std	Z+2, r18	; 0x02
                     Reg_USART0.UCSRC.UMSEL (1) := TRUE;
    1262:	80 ec       	ldi	r24, 0xC0	; 192
    1264:	90 e0       	ldi	r25, 0x00	; 0
    1266:	20 ec       	ldi	r18, 0xC0	; 192
    1268:	30 e0       	ldi	r19, 0x00	; 0
    126a:	f9 01       	movw	r30, r18
    126c:	22 81       	ldd	r18, Z+2	; 0x02
    126e:	22 95       	swap	r18
    1270:	26 95       	lsr	r18
    1272:	26 95       	lsr	r18
    1274:	23 70       	andi	r18, 0x03	; 3
    1276:	22 60       	ori	r18, 0x02	; 2
    1278:	23 70       	andi	r18, 0x03	; 3
    127a:	22 95       	swap	r18
    127c:	22 0f       	add	r18, r18
    127e:	22 0f       	add	r18, r18
    1280:	20 7c       	andi	r18, 0xC0	; 192
    1282:	fc 01       	movw	r30, r24
    1284:	32 81       	ldd	r19, Z+2	; 0x02
    1286:	3f 73       	andi	r19, 0x3F	; 63
    1288:	23 2b       	or	r18, r19
    128a:	fc 01       	movw	r30, r24
    128c:	22 83       	std	Z+2, r18	; 0x02
               end case;
    128e:	00 00       	nop
                  when MASTER_SPI =>
                     Reg_USART3.UCSRC.UMSEL (0) := TRUE;
                     Reg_USART3.UCSRC.UMSEL (1) := TRUE;
               end case;
#end if;
         end case;
    1290:	1f c1       	rjmp	.+574    	; 0x14d0 <avr__usart__initialize__set_sync_mode.1916+0x342>
                     Reg_USART0.UCSRC.UMSEL (1) := TRUE;
               end case;

#if MCU="ATMEGA2560" then
            when USART1 =>
               case In_Setup.Sync_Mode is
    1292:	fc 01       	movw	r30, r24
    1294:	22 81       	ldd	r18, Z+2	; 0x02
    1296:	33 81       	ldd	r19, Z+3	; 0x03
    1298:	f9 01       	movw	r30, r18
    129a:	20 81       	ld	r18, Z
    129c:	22 2f       	mov	r18, r18
    129e:	30 e0       	ldi	r19, 0x00	; 0
    12a0:	40 e0       	ldi	r20, 0x00	; 0
    12a2:	50 e0       	ldi	r21, 0x00	; 0
    12a4:	23 30       	cpi	r18, 0x03	; 3
    12a6:	31 05       	cpc	r19, r1
    12a8:	41 05       	cpc	r20, r1
    12aa:	51 05       	cpc	r21, r1
    12ac:	08 f0       	brcs	.+2      	; 0x12b0 <avr__usart__initialize__set_sync_mode.1916+0x122>
    12ae:	12 c1       	rjmp	.+548    	; 0x14d4 <avr__usart__initialize__set_sync_mode.1916+0x346>
    12b0:	fc 01       	movw	r30, r24
    12b2:	82 81       	ldd	r24, Z+2	; 0x02
    12b4:	93 81       	ldd	r25, Z+3	; 0x03
    12b6:	fc 01       	movw	r30, r24
    12b8:	80 81       	ld	r24, Z
    12ba:	88 23       	and	r24, r24
    12bc:	19 f0       	breq	.+6      	; 0x12c4 <avr__usart__initialize__set_sync_mode.1916+0x136>
    12be:	81 30       	cpi	r24, 0x01	; 1
    12c0:	19 f0       	breq	.+6      	; 0x12c8 <avr__usart__initialize__set_sync_mode.1916+0x13a>
    12c2:	19 c0       	rjmp	.+50     	; 0x12f6 <avr__usart__initialize__set_sync_mode.1916+0x168>
                  when ASYNCHRONOUS => null;
    12c4:	00 00       	nop
                     Reg_USART1.UCSRC.UMSEL (0) := TRUE;

                  when MASTER_SPI =>
                     Reg_USART1.UCSRC.UMSEL (0) := TRUE;
                     Reg_USART1.UCSRC.UMSEL (1) := TRUE;
               end case;
    12c6:	43 c0       	rjmp	.+134    	; 0x134e <avr__usart__initialize__set_sync_mode.1916+0x1c0>
#if MCU="ATMEGA2560" then
            when USART1 =>
               case In_Setup.Sync_Mode is
                  when ASYNCHRONOUS => null;
                  when SYNCHRONOUS =>
                     Reg_USART1.UCSRC.UMSEL (0) := TRUE;
    12c8:	88 ec       	ldi	r24, 0xC8	; 200
    12ca:	90 e0       	ldi	r25, 0x00	; 0
    12cc:	28 ec       	ldi	r18, 0xC8	; 200
    12ce:	30 e0       	ldi	r19, 0x00	; 0
    12d0:	f9 01       	movw	r30, r18
    12d2:	22 81       	ldd	r18, Z+2	; 0x02
    12d4:	22 95       	swap	r18
    12d6:	26 95       	lsr	r18
    12d8:	26 95       	lsr	r18
    12da:	23 70       	andi	r18, 0x03	; 3
    12dc:	21 60       	ori	r18, 0x01	; 1
    12de:	23 70       	andi	r18, 0x03	; 3
    12e0:	22 95       	swap	r18
    12e2:	22 0f       	add	r18, r18
    12e4:	22 0f       	add	r18, r18
    12e6:	20 7c       	andi	r18, 0xC0	; 192
    12e8:	fc 01       	movw	r30, r24
    12ea:	32 81       	ldd	r19, Z+2	; 0x02
    12ec:	3f 73       	andi	r19, 0x3F	; 63
    12ee:	23 2b       	or	r18, r19
    12f0:	fc 01       	movw	r30, r24
    12f2:	22 83       	std	Z+2, r18	; 0x02

                  when MASTER_SPI =>
                     Reg_USART1.UCSRC.UMSEL (0) := TRUE;
                     Reg_USART1.UCSRC.UMSEL (1) := TRUE;
               end case;
    12f4:	2c c0       	rjmp	.+88     	; 0x134e <avr__usart__initialize__set_sync_mode.1916+0x1c0>
                  when ASYNCHRONOUS => null;
                  when SYNCHRONOUS =>
                     Reg_USART1.UCSRC.UMSEL (0) := TRUE;

                  when MASTER_SPI =>
                     Reg_USART1.UCSRC.UMSEL (0) := TRUE;
    12f6:	88 ec       	ldi	r24, 0xC8	; 200
    12f8:	90 e0       	ldi	r25, 0x00	; 0
    12fa:	28 ec       	ldi	r18, 0xC8	; 200
    12fc:	30 e0       	ldi	r19, 0x00	; 0
    12fe:	f9 01       	movw	r30, r18
    1300:	22 81       	ldd	r18, Z+2	; 0x02
    1302:	22 95       	swap	r18
    1304:	26 95       	lsr	r18
    1306:	26 95       	lsr	r18
    1308:	23 70       	andi	r18, 0x03	; 3
    130a:	21 60       	ori	r18, 0x01	; 1
    130c:	23 70       	andi	r18, 0x03	; 3
    130e:	22 95       	swap	r18
    1310:	22 0f       	add	r18, r18
    1312:	22 0f       	add	r18, r18
    1314:	20 7c       	andi	r18, 0xC0	; 192
    1316:	fc 01       	movw	r30, r24
    1318:	32 81       	ldd	r19, Z+2	; 0x02
    131a:	3f 73       	andi	r19, 0x3F	; 63
    131c:	23 2b       	or	r18, r19
    131e:	fc 01       	movw	r30, r24
    1320:	22 83       	std	Z+2, r18	; 0x02
                     Reg_USART1.UCSRC.UMSEL (1) := TRUE;
    1322:	88 ec       	ldi	r24, 0xC8	; 200
    1324:	90 e0       	ldi	r25, 0x00	; 0
    1326:	28 ec       	ldi	r18, 0xC8	; 200
    1328:	30 e0       	ldi	r19, 0x00	; 0
    132a:	f9 01       	movw	r30, r18
    132c:	22 81       	ldd	r18, Z+2	; 0x02
    132e:	22 95       	swap	r18
    1330:	26 95       	lsr	r18
    1332:	26 95       	lsr	r18
    1334:	23 70       	andi	r18, 0x03	; 3
    1336:	22 60       	ori	r18, 0x02	; 2
    1338:	23 70       	andi	r18, 0x03	; 3
    133a:	22 95       	swap	r18
    133c:	22 0f       	add	r18, r18
    133e:	22 0f       	add	r18, r18
    1340:	20 7c       	andi	r18, 0xC0	; 192
    1342:	fc 01       	movw	r30, r24
    1344:	32 81       	ldd	r19, Z+2	; 0x02
    1346:	3f 73       	andi	r19, 0x3F	; 63
    1348:	23 2b       	or	r18, r19
    134a:	fc 01       	movw	r30, r24
    134c:	22 83       	std	Z+2, r18	; 0x02
               end case;
    134e:	00 00       	nop
                  when MASTER_SPI =>
                     Reg_USART3.UCSRC.UMSEL (0) := TRUE;
                     Reg_USART3.UCSRC.UMSEL (1) := TRUE;
               end case;
#end if;
         end case;
    1350:	bf c0       	rjmp	.+382    	; 0x14d0 <avr__usart__initialize__set_sync_mode.1916+0x342>
                     Reg_USART1.UCSRC.UMSEL (0) := TRUE;
                     Reg_USART1.UCSRC.UMSEL (1) := TRUE;
               end case;

            when USART2 =>
               case In_Setup.Sync_Mode is
    1352:	fc 01       	movw	r30, r24
    1354:	22 81       	ldd	r18, Z+2	; 0x02
    1356:	33 81       	ldd	r19, Z+3	; 0x03
    1358:	f9 01       	movw	r30, r18
    135a:	20 81       	ld	r18, Z
    135c:	22 2f       	mov	r18, r18
    135e:	30 e0       	ldi	r19, 0x00	; 0
    1360:	40 e0       	ldi	r20, 0x00	; 0
    1362:	50 e0       	ldi	r21, 0x00	; 0
    1364:	23 30       	cpi	r18, 0x03	; 3
    1366:	31 05       	cpc	r19, r1
    1368:	41 05       	cpc	r20, r1
    136a:	51 05       	cpc	r21, r1
    136c:	08 f0       	brcs	.+2      	; 0x1370 <avr__usart__initialize__set_sync_mode.1916+0x1e2>
    136e:	b2 c0       	rjmp	.+356    	; 0x14d4 <avr__usart__initialize__set_sync_mode.1916+0x346>
    1370:	fc 01       	movw	r30, r24
    1372:	82 81       	ldd	r24, Z+2	; 0x02
    1374:	93 81       	ldd	r25, Z+3	; 0x03
    1376:	fc 01       	movw	r30, r24
    1378:	80 81       	ld	r24, Z
    137a:	88 23       	and	r24, r24
    137c:	19 f0       	breq	.+6      	; 0x1384 <avr__usart__initialize__set_sync_mode.1916+0x1f6>
    137e:	81 30       	cpi	r24, 0x01	; 1
    1380:	19 f0       	breq	.+6      	; 0x1388 <avr__usart__initialize__set_sync_mode.1916+0x1fa>
    1382:	19 c0       	rjmp	.+50     	; 0x13b6 <avr__usart__initialize__set_sync_mode.1916+0x228>
                  when ASYNCHRONOUS => null;
    1384:	00 00       	nop
                     Reg_USART2.UCSRC.UMSEL (0) := TRUE;

                  when MASTER_SPI =>
                     Reg_USART2.UCSRC.UMSEL (0) := TRUE;
                     Reg_USART2.UCSRC.UMSEL (1) := TRUE;
               end case;
    1386:	43 c0       	rjmp	.+134    	; 0x140e <avr__usart__initialize__set_sync_mode.1916+0x280>

            when USART2 =>
               case In_Setup.Sync_Mode is
                  when ASYNCHRONOUS => null;
                  when SYNCHRONOUS =>
                     Reg_USART2.UCSRC.UMSEL (0) := TRUE;
    1388:	80 ed       	ldi	r24, 0xD0	; 208
    138a:	90 e0       	ldi	r25, 0x00	; 0
    138c:	20 ed       	ldi	r18, 0xD0	; 208
    138e:	30 e0       	ldi	r19, 0x00	; 0
    1390:	f9 01       	movw	r30, r18
    1392:	22 81       	ldd	r18, Z+2	; 0x02
    1394:	22 95       	swap	r18
    1396:	26 95       	lsr	r18
    1398:	26 95       	lsr	r18
    139a:	23 70       	andi	r18, 0x03	; 3
    139c:	21 60       	ori	r18, 0x01	; 1
    139e:	23 70       	andi	r18, 0x03	; 3
    13a0:	22 95       	swap	r18
    13a2:	22 0f       	add	r18, r18
    13a4:	22 0f       	add	r18, r18
    13a6:	20 7c       	andi	r18, 0xC0	; 192
    13a8:	fc 01       	movw	r30, r24
    13aa:	32 81       	ldd	r19, Z+2	; 0x02
    13ac:	3f 73       	andi	r19, 0x3F	; 63
    13ae:	23 2b       	or	r18, r19
    13b0:	fc 01       	movw	r30, r24
    13b2:	22 83       	std	Z+2, r18	; 0x02

                  when MASTER_SPI =>
                     Reg_USART2.UCSRC.UMSEL (0) := TRUE;
                     Reg_USART2.UCSRC.UMSEL (1) := TRUE;
               end case;
    13b4:	2c c0       	rjmp	.+88     	; 0x140e <avr__usart__initialize__set_sync_mode.1916+0x280>
                  when ASYNCHRONOUS => null;
                  when SYNCHRONOUS =>
                     Reg_USART2.UCSRC.UMSEL (0) := TRUE;

                  when MASTER_SPI =>
                     Reg_USART2.UCSRC.UMSEL (0) := TRUE;
    13b6:	80 ed       	ldi	r24, 0xD0	; 208
    13b8:	90 e0       	ldi	r25, 0x00	; 0
    13ba:	20 ed       	ldi	r18, 0xD0	; 208
    13bc:	30 e0       	ldi	r19, 0x00	; 0
    13be:	f9 01       	movw	r30, r18
    13c0:	22 81       	ldd	r18, Z+2	; 0x02
    13c2:	22 95       	swap	r18
    13c4:	26 95       	lsr	r18
    13c6:	26 95       	lsr	r18
    13c8:	23 70       	andi	r18, 0x03	; 3
    13ca:	21 60       	ori	r18, 0x01	; 1
    13cc:	23 70       	andi	r18, 0x03	; 3
    13ce:	22 95       	swap	r18
    13d0:	22 0f       	add	r18, r18
    13d2:	22 0f       	add	r18, r18
    13d4:	20 7c       	andi	r18, 0xC0	; 192
    13d6:	fc 01       	movw	r30, r24
    13d8:	32 81       	ldd	r19, Z+2	; 0x02
    13da:	3f 73       	andi	r19, 0x3F	; 63
    13dc:	23 2b       	or	r18, r19
    13de:	fc 01       	movw	r30, r24
    13e0:	22 83       	std	Z+2, r18	; 0x02
                     Reg_USART2.UCSRC.UMSEL (1) := TRUE;
    13e2:	80 ed       	ldi	r24, 0xD0	; 208
    13e4:	90 e0       	ldi	r25, 0x00	; 0
    13e6:	20 ed       	ldi	r18, 0xD0	; 208
    13e8:	30 e0       	ldi	r19, 0x00	; 0
    13ea:	f9 01       	movw	r30, r18
    13ec:	22 81       	ldd	r18, Z+2	; 0x02
    13ee:	22 95       	swap	r18
    13f0:	26 95       	lsr	r18
    13f2:	26 95       	lsr	r18
    13f4:	23 70       	andi	r18, 0x03	; 3
    13f6:	22 60       	ori	r18, 0x02	; 2
    13f8:	23 70       	andi	r18, 0x03	; 3
    13fa:	22 95       	swap	r18
    13fc:	22 0f       	add	r18, r18
    13fe:	22 0f       	add	r18, r18
    1400:	20 7c       	andi	r18, 0xC0	; 192
    1402:	fc 01       	movw	r30, r24
    1404:	32 81       	ldd	r19, Z+2	; 0x02
    1406:	3f 73       	andi	r19, 0x3F	; 63
    1408:	23 2b       	or	r18, r19
    140a:	fc 01       	movw	r30, r24
    140c:	22 83       	std	Z+2, r18	; 0x02
               end case;
    140e:	00 00       	nop
                  when MASTER_SPI =>
                     Reg_USART3.UCSRC.UMSEL (0) := TRUE;
                     Reg_USART3.UCSRC.UMSEL (1) := TRUE;
               end case;
#end if;
         end case;
    1410:	5f c0       	rjmp	.+190    	; 0x14d0 <avr__usart__initialize__set_sync_mode.1916+0x342>
                     Reg_USART2.UCSRC.UMSEL (0) := TRUE;
                     Reg_USART2.UCSRC.UMSEL (1) := TRUE;
               end case;

            when USART3 =>
               case In_Setup.Sync_Mode is
    1412:	fc 01       	movw	r30, r24
    1414:	22 81       	ldd	r18, Z+2	; 0x02
    1416:	33 81       	ldd	r19, Z+3	; 0x03
    1418:	f9 01       	movw	r30, r18
    141a:	20 81       	ld	r18, Z
    141c:	22 2f       	mov	r18, r18
    141e:	30 e0       	ldi	r19, 0x00	; 0
    1420:	40 e0       	ldi	r20, 0x00	; 0
    1422:	50 e0       	ldi	r21, 0x00	; 0
    1424:	23 30       	cpi	r18, 0x03	; 3
    1426:	31 05       	cpc	r19, r1
    1428:	41 05       	cpc	r20, r1
    142a:	51 05       	cpc	r21, r1
    142c:	08 f0       	brcs	.+2      	; 0x1430 <avr__usart__initialize__set_sync_mode.1916+0x2a2>
    142e:	52 c0       	rjmp	.+164    	; 0x14d4 <avr__usart__initialize__set_sync_mode.1916+0x346>
    1430:	fc 01       	movw	r30, r24
    1432:	82 81       	ldd	r24, Z+2	; 0x02
    1434:	93 81       	ldd	r25, Z+3	; 0x03
    1436:	fc 01       	movw	r30, r24
    1438:	80 81       	ld	r24, Z
    143a:	88 23       	and	r24, r24
    143c:	19 f0       	breq	.+6      	; 0x1444 <avr__usart__initialize__set_sync_mode.1916+0x2b6>
    143e:	81 30       	cpi	r24, 0x01	; 1
    1440:	19 f0       	breq	.+6      	; 0x1448 <avr__usart__initialize__set_sync_mode.1916+0x2ba>
    1442:	19 c0       	rjmp	.+50     	; 0x1476 <avr__usart__initialize__set_sync_mode.1916+0x2e8>
                  when ASYNCHRONOUS => null;
    1444:	00 00       	nop
                     Reg_USART3.UCSRC.UMSEL (0) := TRUE;

                  when MASTER_SPI =>
                     Reg_USART3.UCSRC.UMSEL (0) := TRUE;
                     Reg_USART3.UCSRC.UMSEL (1) := TRUE;
               end case;
    1446:	43 c0       	rjmp	.+134    	; 0x14ce <avr__usart__initialize__set_sync_mode.1916+0x340>

            when USART3 =>
               case In_Setup.Sync_Mode is
                  when ASYNCHRONOUS => null;
                  when SYNCHRONOUS =>
                     Reg_USART3.UCSRC.UMSEL (0) := TRUE;
    1448:	80 e3       	ldi	r24, 0x30	; 48
    144a:	91 e0       	ldi	r25, 0x01	; 1
    144c:	20 e3       	ldi	r18, 0x30	; 48
    144e:	31 e0       	ldi	r19, 0x01	; 1
    1450:	f9 01       	movw	r30, r18
    1452:	22 81       	ldd	r18, Z+2	; 0x02
    1454:	22 95       	swap	r18
    1456:	26 95       	lsr	r18
    1458:	26 95       	lsr	r18
    145a:	23 70       	andi	r18, 0x03	; 3
    145c:	21 60       	ori	r18, 0x01	; 1
    145e:	23 70       	andi	r18, 0x03	; 3
    1460:	22 95       	swap	r18
    1462:	22 0f       	add	r18, r18
    1464:	22 0f       	add	r18, r18
    1466:	20 7c       	andi	r18, 0xC0	; 192
    1468:	fc 01       	movw	r30, r24
    146a:	32 81       	ldd	r19, Z+2	; 0x02
    146c:	3f 73       	andi	r19, 0x3F	; 63
    146e:	23 2b       	or	r18, r19
    1470:	fc 01       	movw	r30, r24
    1472:	22 83       	std	Z+2, r18	; 0x02

                  when MASTER_SPI =>
                     Reg_USART3.UCSRC.UMSEL (0) := TRUE;
                     Reg_USART3.UCSRC.UMSEL (1) := TRUE;
               end case;
    1474:	2c c0       	rjmp	.+88     	; 0x14ce <avr__usart__initialize__set_sync_mode.1916+0x340>
                  when ASYNCHRONOUS => null;
                  when SYNCHRONOUS =>
                     Reg_USART3.UCSRC.UMSEL (0) := TRUE;

                  when MASTER_SPI =>
                     Reg_USART3.UCSRC.UMSEL (0) := TRUE;
    1476:	80 e3       	ldi	r24, 0x30	; 48
    1478:	91 e0       	ldi	r25, 0x01	; 1
    147a:	20 e3       	ldi	r18, 0x30	; 48
    147c:	31 e0       	ldi	r19, 0x01	; 1
    147e:	f9 01       	movw	r30, r18
    1480:	22 81       	ldd	r18, Z+2	; 0x02
    1482:	22 95       	swap	r18
    1484:	26 95       	lsr	r18
    1486:	26 95       	lsr	r18
    1488:	23 70       	andi	r18, 0x03	; 3
    148a:	21 60       	ori	r18, 0x01	; 1
    148c:	23 70       	andi	r18, 0x03	; 3
    148e:	22 95       	swap	r18
    1490:	22 0f       	add	r18, r18
    1492:	22 0f       	add	r18, r18
    1494:	20 7c       	andi	r18, 0xC0	; 192
    1496:	fc 01       	movw	r30, r24
    1498:	32 81       	ldd	r19, Z+2	; 0x02
    149a:	3f 73       	andi	r19, 0x3F	; 63
    149c:	23 2b       	or	r18, r19
    149e:	fc 01       	movw	r30, r24
    14a0:	22 83       	std	Z+2, r18	; 0x02
                     Reg_USART3.UCSRC.UMSEL (1) := TRUE;
    14a2:	80 e3       	ldi	r24, 0x30	; 48
    14a4:	91 e0       	ldi	r25, 0x01	; 1
    14a6:	20 e3       	ldi	r18, 0x30	; 48
    14a8:	31 e0       	ldi	r19, 0x01	; 1
    14aa:	f9 01       	movw	r30, r18
    14ac:	22 81       	ldd	r18, Z+2	; 0x02
    14ae:	22 95       	swap	r18
    14b0:	26 95       	lsr	r18
    14b2:	26 95       	lsr	r18
    14b4:	23 70       	andi	r18, 0x03	; 3
    14b6:	22 60       	ori	r18, 0x02	; 2
    14b8:	23 70       	andi	r18, 0x03	; 3
    14ba:	22 95       	swap	r18
    14bc:	22 0f       	add	r18, r18
    14be:	22 0f       	add	r18, r18
    14c0:	20 7c       	andi	r18, 0xC0	; 192
    14c2:	fc 01       	movw	r30, r24
    14c4:	32 81       	ldd	r19, Z+2	; 0x02
    14c6:	3f 73       	andi	r19, 0x3F	; 63
    14c8:	23 2b       	or	r18, r19
    14ca:	fc 01       	movw	r30, r24
    14cc:	22 83       	std	Z+2, r18	; 0x02
               end case;
    14ce:	00 00       	nop
#end if;
         end case;
    14d0:	00 00       	nop
      exception
         when others => null;
    14d2:	01 c0       	rjmp	.+2      	; 0x14d6 <avr__usart__initialize__set_sync_mode.1916+0x348>
    14d4:	00 00       	nop
      end Set_Sync_Mode;
    14d6:	00 00       	nop
    14d8:	0f 90       	pop	r0
    14da:	0f 90       	pop	r0
    14dc:	cf 91       	pop	r28
    14de:	df 91       	pop	r29
    14e0:	3f 90       	pop	r3
    14e2:	2f 90       	pop	r2
    14e4:	08 95       	ret

000014e6 <avr__usart__initialize>:
-- =============================================================================
-- Package body AVR.USART
-- =============================================================================
package body AVR.USART is

   procedure Initialize
    14e6:	2f 92       	push	r2
    14e8:	3f 92       	push	r3
    14ea:	df 93       	push	r29
    14ec:	cf 93       	push	r28
    14ee:	cd b7       	in	r28, 0x3d	; 61
    14f0:	de b7       	in	r29, 0x3e	; 62
    14f2:	28 97       	sbiw	r28, 0x08	; 8
    14f4:	0f b6       	in	r0, 0x3f	; 63
    14f6:	f8 94       	cli
    14f8:	de bf       	out	0x3e, r29	; 62
    14fa:	0f be       	out	0x3f, r0	; 63
    14fc:	cd bf       	out	0x3d, r28	; 61
    14fe:	8e 83       	std	Y+6, r24	; 0x06
    1500:	78 87       	std	Y+8, r23	; 0x08
    1502:	6f 83       	std	Y+7, r22	; 0x07
    1504:	8e 81       	ldd	r24, Y+6	; 0x06
    1506:	8d 83       	std	Y+5, r24	; 0x05
    1508:	8f 81       	ldd	r24, Y+7	; 0x07
    150a:	98 85       	ldd	r25, Y+8	; 0x08
    150c:	9c 83       	std	Y+4, r25	; 0x04
    150e:	8b 83       	std	Y+3, r24	; 0x03
      exception
         when others => null;
      end Enable_Tx_Rx_And_Maybe_RXCIE;

   begin
      Priv_Setup (In_Port) := In_Setup;
    1510:	8d 81       	ldd	r24, Y+5	; 0x05
    1512:	88 2f       	mov	r24, r24
    1514:	90 e0       	ldi	r25, 0x00	; 0
    1516:	a0 e0       	ldi	r26, 0x00	; 0
    1518:	b0 e0       	ldi	r27, 0x00	; 0
    151a:	84 30       	cpi	r24, 0x04	; 4
    151c:	91 05       	cpc	r25, r1
    151e:	a1 05       	cpc	r26, r1
    1520:	b1 05       	cpc	r27, r1
    1522:	08 f0       	brcs	.+2      	; 0x1526 <avr__usart__initialize+0x40>
    1524:	48 c0       	rjmp	.+144    	; 0x15b6 <avr__usart__initialize+0xd0>
    1526:	8d 81       	ldd	r24, Y+5	; 0x05
    1528:	28 2f       	mov	r18, r24
    152a:	30 e0       	ldi	r19, 0x00	; 0
    152c:	4b 81       	ldd	r20, Y+3	; 0x03
    152e:	5c 81       	ldd	r21, Y+4	; 0x04
    1530:	c9 01       	movw	r24, r18
    1532:	88 0f       	add	r24, r24
    1534:	99 1f       	adc	r25, r25
    1536:	bc 01       	movw	r22, r24
    1538:	66 0f       	add	r22, r22
    153a:	77 1f       	adc	r23, r23
    153c:	66 0f       	add	r22, r22
    153e:	77 1f       	adc	r23, r23
    1540:	86 0f       	add	r24, r22
    1542:	97 1f       	adc	r25, r23
    1544:	82 0f       	add	r24, r18
    1546:	93 1f       	adc	r25, r19
    1548:	82 53       	subi	r24, 0x32	; 50
    154a:	9c 4f       	sbci	r25, 0xFC	; 252
    154c:	9a 01       	movw	r18, r20
    154e:	4b e0       	ldi	r20, 0x0B	; 11
    1550:	f9 01       	movw	r30, r18
    1552:	00 80       	ld	r0, Z
    1554:	2f 5f       	subi	r18, 0xFF	; 255
    1556:	3f 4f       	sbci	r19, 0xFF	; 255
    1558:	fc 01       	movw	r30, r24
    155a:	00 82       	st	Z, r0
    155c:	01 96       	adiw	r24, 0x01	; 1
    155e:	41 50       	subi	r20, 0x01	; 1
    1560:	44 23       	and	r20, r20
    1562:	b1 f7       	brne	.-20     	; 0x1550 <avr__usart__initialize+0x6a>

      Clear_Registers;
    1564:	ce 01       	movw	r24, r28
    1566:	01 96       	adiw	r24, 0x01	; 1
    1568:	1c 01       	movw	r2, r24
    156a:	0e 94 a9 10 	call	0x2152	; 0x2152 <avr__usart__initialize__clear_registers.1928>
      Set_Sync_Mode;
    156e:	ce 01       	movw	r24, r28
    1570:	01 96       	adiw	r24, 0x01	; 1
    1572:	1c 01       	movw	r2, r24
    1574:	0e 94 c7 08 	call	0x118e	; 0x118e <avr__usart__initialize__set_sync_mode.1916>
      Set_Double_Speed;
    1578:	ce 01       	movw	r24, r28
    157a:	01 96       	adiw	r24, 0x01	; 1
    157c:	1c 01       	movw	r2, r24
    157e:	0e 94 e8 0a 	call	0x15d0	; 0x15d0 <avr__usart__initialize__set_double_speed.1918>
      Set_Baud_Speed;
    1582:	ce 01       	movw	r24, r28
    1584:	01 96       	adiw	r24, 0x01	; 1
    1586:	1c 01       	movw	r2, r24
    1588:	0e 94 4e 0b 	call	0x169c	; 0x169c <avr__usart__initialize__set_baud_speed.1920>
      Set_Data_Bits;
    158c:	ce 01       	movw	r24, r28
    158e:	01 96       	adiw	r24, 0x01	; 1
    1590:	1c 01       	movw	r2, r24
    1592:	0e 94 33 0d 	call	0x1a66	; 0x1a66 <avr__usart__initialize__set_data_bits.1922>
      Set_Parity;
    1596:	ce 01       	movw	r24, r28
    1598:	01 96       	adiw	r24, 0x01	; 1
    159a:	1c 01       	movw	r2, r24
    159c:	0e 94 a7 0e 	call	0x1d4e	; 0x1d4e <avr__usart__initialize__set_parity.1924>
      Set_Stop_Bits;
    15a0:	ce 01       	movw	r24, r28
    15a2:	01 96       	adiw	r24, 0x01	; 1
    15a4:	1c 01       	movw	r2, r24
    15a6:	0e 94 3b 10 	call	0x2076	; 0x2076 <avr__usart__initialize__set_stop_bits.1926>
      Enable_Tx_Rx_And_Maybe_RXCIE;
    15aa:	ce 01       	movw	r24, r28
    15ac:	01 96       	adiw	r24, 0x01	; 1
    15ae:	1c 01       	movw	r2, r24
    15b0:	0e 94 07 11 	call	0x220e	; 0x220e <avr__usart__initialize__enable_tx_rx_and_maybe_rxcie.1930>

   exception
      when others => null;
    15b4:	01 c0       	rjmp	.+2      	; 0x15b8 <avr__usart__initialize+0xd2>
    15b6:	00 00       	nop
   end Initialize;
    15b8:	00 00       	nop
    15ba:	28 96       	adiw	r28, 0x08	; 8
    15bc:	0f b6       	in	r0, 0x3f	; 63
    15be:	f8 94       	cli
    15c0:	de bf       	out	0x3e, r29	; 62
    15c2:	0f be       	out	0x3f, r0	; 63
    15c4:	cd bf       	out	0x3d, r28	; 61
    15c6:	cf 91       	pop	r28
    15c8:	df 91       	pop	r29
    15ca:	3f 90       	pop	r3
    15cc:	2f 90       	pop	r2
    15ce:	08 95       	ret

000015d0 <avr__usart__initialize__set_double_speed.1918>:
         end case;
      exception
         when others => null;
      end Set_Sync_Mode;

      procedure Set_Double_Speed is
    15d0:	2f 92       	push	r2
    15d2:	3f 92       	push	r3
    15d4:	df 93       	push	r29
    15d6:	cf 93       	push	r28
    15d8:	0f 92       	push	r0
    15da:	0f 92       	push	r0
    15dc:	cd b7       	in	r28, 0x3d	; 61
    15de:	de b7       	in	r29, 0x3e	; 62
    15e0:	c1 01       	movw	r24, r2
    15e2:	3a 82       	std	Y+2, r3	; 0x02
    15e4:	29 82       	std	Y+1, r2	; 0x01
      begin
         case In_Port is
    15e6:	fc 01       	movw	r30, r24
    15e8:	24 81       	ldd	r18, Z+4	; 0x04
    15ea:	22 2f       	mov	r18, r18
    15ec:	30 e0       	ldi	r19, 0x00	; 0
    15ee:	40 e0       	ldi	r20, 0x00	; 0
    15f0:	50 e0       	ldi	r21, 0x00	; 0
    15f2:	24 30       	cpi	r18, 0x04	; 4
    15f4:	31 05       	cpc	r19, r1
    15f6:	41 05       	cpc	r20, r1
    15f8:	51 05       	cpc	r21, r1
    15fa:	08 f0       	brcs	.+2      	; 0x15fe <avr__usart__initialize__set_double_speed.1918+0x2e>
    15fc:	46 c0       	rjmp	.+140    	; 0x168a <avr__usart__initialize__set_double_speed.1918+0xba>
    15fe:	fc 01       	movw	r30, r24
    1600:	24 81       	ldd	r18, Z+4	; 0x04
    1602:	21 30       	cpi	r18, 0x01	; 1
    1604:	a1 f0       	breq	.+40     	; 0x162e <avr__usart__initialize__set_double_speed.1918+0x5e>
    1606:	21 30       	cpi	r18, 0x01	; 1
    1608:	18 f0       	brcs	.+6      	; 0x1610 <avr__usart__initialize__set_double_speed.1918+0x40>
    160a:	22 30       	cpi	r18, 0x02	; 2
    160c:	f9 f0       	breq	.+62     	; 0x164c <avr__usart__initialize__set_double_speed.1918+0x7c>
    160e:	2d c0       	rjmp	.+90     	; 0x166a <avr__usart__initialize__set_double_speed.1918+0x9a>
            when USART0 =>
               if In_Setup.Double_Speed then
    1610:	fc 01       	movw	r30, r24
    1612:	82 81       	ldd	r24, Z+2	; 0x02
    1614:	93 81       	ldd	r25, Z+3	; 0x03
    1616:	fc 01       	movw	r30, r24
    1618:	81 81       	ldd	r24, Z+1	; 0x01
    161a:	88 23       	and	r24, r24
    161c:	a1 f1       	breq	.+104    	; 0x1686 <avr__usart__initialize__set_double_speed.1918+0xb6>
                  Reg_USART0.UCSRA.U2X := TRUE;
    161e:	80 ec       	ldi	r24, 0xC0	; 192
    1620:	90 e0       	ldi	r25, 0x00	; 0
    1622:	fc 01       	movw	r30, r24
    1624:	20 81       	ld	r18, Z
    1626:	22 60       	ori	r18, 0x02	; 2
    1628:	fc 01       	movw	r30, r24
    162a:	20 83       	st	Z, r18
            when USART3 =>
               if In_Setup.Double_Speed then
                  Reg_USART3.UCSRA.U2X := TRUE;
               end if;
#end if;
         end case;
    162c:	2c c0       	rjmp	.+88     	; 0x1686 <avr__usart__initialize__set_double_speed.1918+0xb6>
                  Reg_USART0.UCSRA.U2X := TRUE;
               end if;

#if MCU="ATMEGA2560" then
            when USART1 =>
               if In_Setup.Double_Speed then
    162e:	fc 01       	movw	r30, r24
    1630:	82 81       	ldd	r24, Z+2	; 0x02
    1632:	93 81       	ldd	r25, Z+3	; 0x03
    1634:	fc 01       	movw	r30, r24
    1636:	81 81       	ldd	r24, Z+1	; 0x01
    1638:	88 23       	and	r24, r24
    163a:	29 f1       	breq	.+74     	; 0x1686 <avr__usart__initialize__set_double_speed.1918+0xb6>
                  Reg_USART1.UCSRA.U2X := TRUE;
    163c:	88 ec       	ldi	r24, 0xC8	; 200
    163e:	90 e0       	ldi	r25, 0x00	; 0
    1640:	fc 01       	movw	r30, r24
    1642:	20 81       	ld	r18, Z
    1644:	22 60       	ori	r18, 0x02	; 2
    1646:	fc 01       	movw	r30, r24
    1648:	20 83       	st	Z, r18
            when USART3 =>
               if In_Setup.Double_Speed then
                  Reg_USART3.UCSRA.U2X := TRUE;
               end if;
#end if;
         end case;
    164a:	1d c0       	rjmp	.+58     	; 0x1686 <avr__usart__initialize__set_double_speed.1918+0xb6>
               if In_Setup.Double_Speed then
                  Reg_USART1.UCSRA.U2X := TRUE;
               end if;

            when USART2 =>
               if In_Setup.Double_Speed then
    164c:	fc 01       	movw	r30, r24
    164e:	82 81       	ldd	r24, Z+2	; 0x02
    1650:	93 81       	ldd	r25, Z+3	; 0x03
    1652:	fc 01       	movw	r30, r24
    1654:	81 81       	ldd	r24, Z+1	; 0x01
    1656:	88 23       	and	r24, r24
    1658:	b1 f0       	breq	.+44     	; 0x1686 <avr__usart__initialize__set_double_speed.1918+0xb6>
                  Reg_USART2.UCSRA.U2X := TRUE;
    165a:	80 ed       	ldi	r24, 0xD0	; 208
    165c:	90 e0       	ldi	r25, 0x00	; 0
    165e:	fc 01       	movw	r30, r24
    1660:	20 81       	ld	r18, Z
    1662:	22 60       	ori	r18, 0x02	; 2
    1664:	fc 01       	movw	r30, r24
    1666:	20 83       	st	Z, r18
            when USART3 =>
               if In_Setup.Double_Speed then
                  Reg_USART3.UCSRA.U2X := TRUE;
               end if;
#end if;
         end case;
    1668:	0e c0       	rjmp	.+28     	; 0x1686 <avr__usart__initialize__set_double_speed.1918+0xb6>
            when USART2 =>
               if In_Setup.Double_Speed then
                  Reg_USART2.UCSRA.U2X := TRUE;
               end if;
            when USART3 =>
               if In_Setup.Double_Speed then
    166a:	fc 01       	movw	r30, r24
    166c:	82 81       	ldd	r24, Z+2	; 0x02
    166e:	93 81       	ldd	r25, Z+3	; 0x03
    1670:	fc 01       	movw	r30, r24
    1672:	81 81       	ldd	r24, Z+1	; 0x01
    1674:	88 23       	and	r24, r24
    1676:	39 f0       	breq	.+14     	; 0x1686 <avr__usart__initialize__set_double_speed.1918+0xb6>
                  Reg_USART3.UCSRA.U2X := TRUE;
    1678:	80 e3       	ldi	r24, 0x30	; 48
    167a:	91 e0       	ldi	r25, 0x01	; 1
    167c:	fc 01       	movw	r30, r24
    167e:	20 81       	ld	r18, Z
    1680:	22 60       	ori	r18, 0x02	; 2
    1682:	fc 01       	movw	r30, r24
    1684:	20 83       	st	Z, r18
               end if;
#end if;
         end case;
    1686:	00 00       	nop
      exception
         when others => null;
    1688:	01 c0       	rjmp	.+2      	; 0x168c <avr__usart__initialize__set_double_speed.1918+0xbc>
    168a:	00 00       	nop
      end Set_Double_Speed;
    168c:	00 00       	nop
    168e:	0f 90       	pop	r0
    1690:	0f 90       	pop	r0
    1692:	cf 91       	pop	r28
    1694:	df 91       	pop	r29
    1696:	3f 90       	pop	r3
    1698:	2f 90       	pop	r2
    169a:	08 95       	ret

0000169c <avr__usart__initialize__set_baud_speed.1920>:

      procedure Set_Baud_Speed is
    169c:	2f 92       	push	r2
    169e:	3f 92       	push	r3
    16a0:	0f 93       	push	r16
    16a2:	1f 93       	push	r17
    16a4:	df 93       	push	r29
    16a6:	cf 93       	push	r28
    16a8:	0f 92       	push	r0
    16aa:	0f 92       	push	r0
    16ac:	cd b7       	in	r28, 0x3d	; 61
    16ae:	de b7       	in	r29, 0x3e	; 62
    16b0:	81 01       	movw	r16, r2
    16b2:	3a 82       	std	Y+2, r3	; 0x02
    16b4:	29 82       	std	Y+1, r2	; 0x01
      begin
         if In_Setup.Sync_Mode = ASYNCHRONOUS then
    16b6:	f8 01       	movw	r30, r16
    16b8:	82 81       	ldd	r24, Z+2	; 0x02
    16ba:	93 81       	ldd	r25, Z+3	; 0x03
    16bc:	fc 01       	movw	r30, r24
    16be:	80 81       	ld	r24, Z
    16c0:	88 23       	and	r24, r24
    16c2:	09 f0       	breq	.+2      	; 0x16c6 <avr__usart__initialize__set_baud_speed.1920+0x2a>
    16c4:	ea c0       	rjmp	.+468    	; 0x189a <avr__usart__initialize__set_baud_speed.1920+0x1fe>
            if not In_Setup.Double_Speed then
    16c6:	f8 01       	movw	r30, r16
    16c8:	82 81       	ldd	r24, Z+2	; 0x02
    16ca:	93 81       	ldd	r25, Z+3	; 0x03
    16cc:	fc 01       	movw	r30, r24
    16ce:	91 81       	ldd	r25, Z+1	; 0x01
    16d0:	81 e0       	ldi	r24, 0x01	; 1
    16d2:	89 27       	eor	r24, r25
    16d4:	88 23       	and	r24, r24
    16d6:	09 f4       	brne	.+2      	; 0x16da <avr__usart__initialize__set_baud_speed.1920+0x3e>
    16d8:	76 c0       	rjmp	.+236    	; 0x17c6 <avr__usart__initialize__set_baud_speed.1920+0x12a>
               -- Asynchronous Normal mode (U2Xn = 0);
               UBRR_Value := Unsigned_16 (AVR.MCU.F_CPU / (16 * In_Setup.Baud_Rate) - 1);
    16da:	f8 01       	movw	r30, r16
    16dc:	82 81       	ldd	r24, Z+2	; 0x02
    16de:	93 81       	ldd	r25, Z+3	; 0x03
    16e0:	fc 01       	movw	r30, r24
    16e2:	82 81       	ldd	r24, Z+2	; 0x02
    16e4:	93 81       	ldd	r25, Z+3	; 0x03
    16e6:	a4 81       	ldd	r26, Z+4	; 0x04
    16e8:	b5 81       	ldd	r27, Z+5	; 0x05
    16ea:	88 0f       	add	r24, r24
    16ec:	99 1f       	adc	r25, r25
    16ee:	aa 1f       	adc	r26, r26
    16f0:	bb 1f       	adc	r27, r27
    16f2:	88 0f       	add	r24, r24
    16f4:	99 1f       	adc	r25, r25
    16f6:	aa 1f       	adc	r26, r26
    16f8:	bb 1f       	adc	r27, r27
    16fa:	88 0f       	add	r24, r24
    16fc:	99 1f       	adc	r25, r25
    16fe:	aa 1f       	adc	r26, r26
    1700:	bb 1f       	adc	r27, r27
    1702:	88 0f       	add	r24, r24
    1704:	99 1f       	adc	r25, r25
    1706:	aa 1f       	adc	r26, r26
    1708:	bb 1f       	adc	r27, r27
    170a:	00 97       	sbiw	r24, 0x00	; 0
    170c:	a1 05       	cpc	r26, r1
    170e:	b1 05       	cpc	r27, r1
    1710:	09 f4       	brne	.+2      	; 0x1714 <avr__usart__initialize__set_baud_speed.1920+0x78>
    1712:	9e c1       	rjmp	.+828    	; 0x1a50 <avr__usart__initialize__set_baud_speed.1920+0x3b4>
    1714:	f8 01       	movw	r30, r16
    1716:	82 81       	ldd	r24, Z+2	; 0x02
    1718:	93 81       	ldd	r25, Z+3	; 0x03
    171a:	fc 01       	movw	r30, r24
    171c:	82 81       	ldd	r24, Z+2	; 0x02
    171e:	93 81       	ldd	r25, Z+3	; 0x03
    1720:	a4 81       	ldd	r26, Z+4	; 0x04
    1722:	b5 81       	ldd	r27, Z+5	; 0x05
    1724:	88 0f       	add	r24, r24
    1726:	99 1f       	adc	r25, r25
    1728:	aa 1f       	adc	r26, r26
    172a:	bb 1f       	adc	r27, r27
    172c:	88 0f       	add	r24, r24
    172e:	99 1f       	adc	r25, r25
    1730:	aa 1f       	adc	r26, r26
    1732:	bb 1f       	adc	r27, r27
    1734:	88 0f       	add	r24, r24
    1736:	99 1f       	adc	r25, r25
    1738:	aa 1f       	adc	r26, r26
    173a:	bb 1f       	adc	r27, r27
    173c:	88 0f       	add	r24, r24
    173e:	99 1f       	adc	r25, r25
    1740:	aa 1f       	adc	r26, r26
    1742:	bb 1f       	adc	r27, r27
    1744:	9c 01       	movw	r18, r24
    1746:	ad 01       	movw	r20, r26
    1748:	80 e0       	ldi	r24, 0x00	; 0
    174a:	94 e2       	ldi	r25, 0x24	; 36
    174c:	a4 ef       	ldi	r26, 0xF4	; 244
    174e:	b0 e0       	ldi	r27, 0x00	; 0
    1750:	bc 01       	movw	r22, r24
    1752:	cd 01       	movw	r24, r26
    1754:	0e 94 d0 17 	call	0x2fa0	; 0x2fa0 <__udivmodsi4>
    1758:	da 01       	movw	r26, r20
    175a:	c9 01       	movw	r24, r18
    175c:	01 97       	sbiw	r24, 0x01	; 1
    175e:	a1 09       	sbc	r26, r1
    1760:	b1 09       	sbc	r27, r1
    1762:	80 30       	cpi	r24, 0x00	; 0
    1764:	f0 e0       	ldi	r31, 0x00	; 0
    1766:	9f 07       	cpc	r25, r31
    1768:	f1 e0       	ldi	r31, 0x01	; 1
    176a:	af 07       	cpc	r26, r31
    176c:	f0 e0       	ldi	r31, 0x00	; 0
    176e:	bf 07       	cpc	r27, r31
    1770:	08 f0       	brcs	.+2      	; 0x1774 <avr__usart__initialize__set_baud_speed.1920+0xd8>
    1772:	6e c1       	rjmp	.+732    	; 0x1a50 <avr__usart__initialize__set_baud_speed.1920+0x3b4>
    1774:	f8 01       	movw	r30, r16
    1776:	82 81       	ldd	r24, Z+2	; 0x02
    1778:	93 81       	ldd	r25, Z+3	; 0x03
    177a:	fc 01       	movw	r30, r24
    177c:	82 81       	ldd	r24, Z+2	; 0x02
    177e:	93 81       	ldd	r25, Z+3	; 0x03
    1780:	a4 81       	ldd	r26, Z+4	; 0x04
    1782:	b5 81       	ldd	r27, Z+5	; 0x05
    1784:	88 0f       	add	r24, r24
    1786:	99 1f       	adc	r25, r25
    1788:	aa 1f       	adc	r26, r26
    178a:	bb 1f       	adc	r27, r27
    178c:	88 0f       	add	r24, r24
    178e:	99 1f       	adc	r25, r25
    1790:	aa 1f       	adc	r26, r26
    1792:	bb 1f       	adc	r27, r27
    1794:	88 0f       	add	r24, r24
    1796:	99 1f       	adc	r25, r25
    1798:	aa 1f       	adc	r26, r26
    179a:	bb 1f       	adc	r27, r27
    179c:	88 0f       	add	r24, r24
    179e:	99 1f       	adc	r25, r25
    17a0:	aa 1f       	adc	r26, r26
    17a2:	bb 1f       	adc	r27, r27
    17a4:	9c 01       	movw	r18, r24
    17a6:	ad 01       	movw	r20, r26
    17a8:	80 e0       	ldi	r24, 0x00	; 0
    17aa:	94 e2       	ldi	r25, 0x24	; 36
    17ac:	a4 ef       	ldi	r26, 0xF4	; 244
    17ae:	b0 e0       	ldi	r27, 0x00	; 0
    17b0:	bc 01       	movw	r22, r24
    17b2:	cd 01       	movw	r24, r26
    17b4:	0e 94 d0 17 	call	0x2fa0	; 0x2fa0 <__udivmodsi4>
    17b8:	da 01       	movw	r26, r20
    17ba:	c9 01       	movw	r24, r18
    17bc:	01 97       	sbiw	r24, 0x01	; 1
    17be:	f8 01       	movw	r30, r16
    17c0:	91 83       	std	Z+1, r25	; 0x01
    17c2:	80 83       	st	Z, r24
    17c4:	bb c0       	rjmp	.+374    	; 0x193c <avr__usart__initialize__set_baud_speed.1920+0x2a0>
            else
               UBRR_Value := Unsigned_16 (AVR.MCU.F_CPU / (08 * In_Setup.Baud_Rate) - 1);
    17c6:	f8 01       	movw	r30, r16
    17c8:	82 81       	ldd	r24, Z+2	; 0x02
    17ca:	93 81       	ldd	r25, Z+3	; 0x03
    17cc:	fc 01       	movw	r30, r24
    17ce:	82 81       	ldd	r24, Z+2	; 0x02
    17d0:	93 81       	ldd	r25, Z+3	; 0x03
    17d2:	a4 81       	ldd	r26, Z+4	; 0x04
    17d4:	b5 81       	ldd	r27, Z+5	; 0x05
    17d6:	88 0f       	add	r24, r24
    17d8:	99 1f       	adc	r25, r25
    17da:	aa 1f       	adc	r26, r26
    17dc:	bb 1f       	adc	r27, r27
    17de:	88 0f       	add	r24, r24
    17e0:	99 1f       	adc	r25, r25
    17e2:	aa 1f       	adc	r26, r26
    17e4:	bb 1f       	adc	r27, r27
    17e6:	88 0f       	add	r24, r24
    17e8:	99 1f       	adc	r25, r25
    17ea:	aa 1f       	adc	r26, r26
    17ec:	bb 1f       	adc	r27, r27
    17ee:	00 97       	sbiw	r24, 0x00	; 0
    17f0:	a1 05       	cpc	r26, r1
    17f2:	b1 05       	cpc	r27, r1
    17f4:	09 f4       	brne	.+2      	; 0x17f8 <avr__usart__initialize__set_baud_speed.1920+0x15c>
    17f6:	2c c1       	rjmp	.+600    	; 0x1a50 <avr__usart__initialize__set_baud_speed.1920+0x3b4>
    17f8:	f8 01       	movw	r30, r16
    17fa:	82 81       	ldd	r24, Z+2	; 0x02
    17fc:	93 81       	ldd	r25, Z+3	; 0x03
    17fe:	fc 01       	movw	r30, r24
    1800:	82 81       	ldd	r24, Z+2	; 0x02
    1802:	93 81       	ldd	r25, Z+3	; 0x03
    1804:	a4 81       	ldd	r26, Z+4	; 0x04
    1806:	b5 81       	ldd	r27, Z+5	; 0x05
    1808:	88 0f       	add	r24, r24
    180a:	99 1f       	adc	r25, r25
    180c:	aa 1f       	adc	r26, r26
    180e:	bb 1f       	adc	r27, r27
    1810:	88 0f       	add	r24, r24
    1812:	99 1f       	adc	r25, r25
    1814:	aa 1f       	adc	r26, r26
    1816:	bb 1f       	adc	r27, r27
    1818:	88 0f       	add	r24, r24
    181a:	99 1f       	adc	r25, r25
    181c:	aa 1f       	adc	r26, r26
    181e:	bb 1f       	adc	r27, r27
    1820:	9c 01       	movw	r18, r24
    1822:	ad 01       	movw	r20, r26
    1824:	80 e0       	ldi	r24, 0x00	; 0
    1826:	94 e2       	ldi	r25, 0x24	; 36
    1828:	a4 ef       	ldi	r26, 0xF4	; 244
    182a:	b0 e0       	ldi	r27, 0x00	; 0
    182c:	bc 01       	movw	r22, r24
    182e:	cd 01       	movw	r24, r26
    1830:	0e 94 d0 17 	call	0x2fa0	; 0x2fa0 <__udivmodsi4>
    1834:	da 01       	movw	r26, r20
    1836:	c9 01       	movw	r24, r18
    1838:	01 97       	sbiw	r24, 0x01	; 1
    183a:	a1 09       	sbc	r26, r1
    183c:	b1 09       	sbc	r27, r1
    183e:	80 30       	cpi	r24, 0x00	; 0
    1840:	f0 e0       	ldi	r31, 0x00	; 0
    1842:	9f 07       	cpc	r25, r31
    1844:	f1 e0       	ldi	r31, 0x01	; 1
    1846:	af 07       	cpc	r26, r31
    1848:	f0 e0       	ldi	r31, 0x00	; 0
    184a:	bf 07       	cpc	r27, r31
    184c:	08 f0       	brcs	.+2      	; 0x1850 <avr__usart__initialize__set_baud_speed.1920+0x1b4>
    184e:	00 c1       	rjmp	.+512    	; 0x1a50 <avr__usart__initialize__set_baud_speed.1920+0x3b4>
    1850:	f8 01       	movw	r30, r16
    1852:	82 81       	ldd	r24, Z+2	; 0x02
    1854:	93 81       	ldd	r25, Z+3	; 0x03
    1856:	fc 01       	movw	r30, r24
    1858:	82 81       	ldd	r24, Z+2	; 0x02
    185a:	93 81       	ldd	r25, Z+3	; 0x03
    185c:	a4 81       	ldd	r26, Z+4	; 0x04
    185e:	b5 81       	ldd	r27, Z+5	; 0x05
    1860:	88 0f       	add	r24, r24
    1862:	99 1f       	adc	r25, r25
    1864:	aa 1f       	adc	r26, r26
    1866:	bb 1f       	adc	r27, r27
    1868:	88 0f       	add	r24, r24
    186a:	99 1f       	adc	r25, r25
    186c:	aa 1f       	adc	r26, r26
    186e:	bb 1f       	adc	r27, r27
    1870:	88 0f       	add	r24, r24
    1872:	99 1f       	adc	r25, r25
    1874:	aa 1f       	adc	r26, r26
    1876:	bb 1f       	adc	r27, r27
    1878:	9c 01       	movw	r18, r24
    187a:	ad 01       	movw	r20, r26
    187c:	80 e0       	ldi	r24, 0x00	; 0
    187e:	94 e2       	ldi	r25, 0x24	; 36
    1880:	a4 ef       	ldi	r26, 0xF4	; 244
    1882:	b0 e0       	ldi	r27, 0x00	; 0
    1884:	bc 01       	movw	r22, r24
    1886:	cd 01       	movw	r24, r26
    1888:	0e 94 d0 17 	call	0x2fa0	; 0x2fa0 <__udivmodsi4>
    188c:	da 01       	movw	r26, r20
    188e:	c9 01       	movw	r24, r18
    1890:	01 97       	sbiw	r24, 0x01	; 1
    1892:	f8 01       	movw	r30, r16
    1894:	91 83       	std	Z+1, r25	; 0x01
    1896:	80 83       	st	Z, r24
    1898:	51 c0       	rjmp	.+162    	; 0x193c <avr__usart__initialize__set_baud_speed.1920+0x2a0>
            end if;
         else
            UBRR_Value := Unsigned_16 (AVR.MCU.F_CPU / (02 * In_Setup.Baud_Rate) - 1);
    189a:	f8 01       	movw	r30, r16
    189c:	82 81       	ldd	r24, Z+2	; 0x02
    189e:	93 81       	ldd	r25, Z+3	; 0x03
    18a0:	fc 01       	movw	r30, r24
    18a2:	82 81       	ldd	r24, Z+2	; 0x02
    18a4:	93 81       	ldd	r25, Z+3	; 0x03
    18a6:	a4 81       	ldd	r26, Z+4	; 0x04
    18a8:	b5 81       	ldd	r27, Z+5	; 0x05
    18aa:	88 0f       	add	r24, r24
    18ac:	99 1f       	adc	r25, r25
    18ae:	aa 1f       	adc	r26, r26
    18b0:	bb 1f       	adc	r27, r27
    18b2:	00 97       	sbiw	r24, 0x00	; 0
    18b4:	a1 05       	cpc	r26, r1
    18b6:	b1 05       	cpc	r27, r1
    18b8:	09 f4       	brne	.+2      	; 0x18bc <avr__usart__initialize__set_baud_speed.1920+0x220>
    18ba:	ca c0       	rjmp	.+404    	; 0x1a50 <avr__usart__initialize__set_baud_speed.1920+0x3b4>
    18bc:	f8 01       	movw	r30, r16
    18be:	82 81       	ldd	r24, Z+2	; 0x02
    18c0:	93 81       	ldd	r25, Z+3	; 0x03
    18c2:	fc 01       	movw	r30, r24
    18c4:	82 81       	ldd	r24, Z+2	; 0x02
    18c6:	93 81       	ldd	r25, Z+3	; 0x03
    18c8:	a4 81       	ldd	r26, Z+4	; 0x04
    18ca:	b5 81       	ldd	r27, Z+5	; 0x05
    18cc:	9c 01       	movw	r18, r24
    18ce:	ad 01       	movw	r20, r26
    18d0:	22 0f       	add	r18, r18
    18d2:	33 1f       	adc	r19, r19
    18d4:	44 1f       	adc	r20, r20
    18d6:	55 1f       	adc	r21, r21
    18d8:	80 e0       	ldi	r24, 0x00	; 0
    18da:	94 e2       	ldi	r25, 0x24	; 36
    18dc:	a4 ef       	ldi	r26, 0xF4	; 244
    18de:	b0 e0       	ldi	r27, 0x00	; 0
    18e0:	bc 01       	movw	r22, r24
    18e2:	cd 01       	movw	r24, r26
    18e4:	0e 94 d0 17 	call	0x2fa0	; 0x2fa0 <__udivmodsi4>
    18e8:	da 01       	movw	r26, r20
    18ea:	c9 01       	movw	r24, r18
    18ec:	01 97       	sbiw	r24, 0x01	; 1
    18ee:	a1 09       	sbc	r26, r1
    18f0:	b1 09       	sbc	r27, r1
    18f2:	80 30       	cpi	r24, 0x00	; 0
    18f4:	f0 e0       	ldi	r31, 0x00	; 0
    18f6:	9f 07       	cpc	r25, r31
    18f8:	f1 e0       	ldi	r31, 0x01	; 1
    18fa:	af 07       	cpc	r26, r31
    18fc:	f0 e0       	ldi	r31, 0x00	; 0
    18fe:	bf 07       	cpc	r27, r31
    1900:	08 f0       	brcs	.+2      	; 0x1904 <avr__usart__initialize__set_baud_speed.1920+0x268>
    1902:	a6 c0       	rjmp	.+332    	; 0x1a50 <avr__usart__initialize__set_baud_speed.1920+0x3b4>
    1904:	f8 01       	movw	r30, r16
    1906:	82 81       	ldd	r24, Z+2	; 0x02
    1908:	93 81       	ldd	r25, Z+3	; 0x03
    190a:	fc 01       	movw	r30, r24
    190c:	82 81       	ldd	r24, Z+2	; 0x02
    190e:	93 81       	ldd	r25, Z+3	; 0x03
    1910:	a4 81       	ldd	r26, Z+4	; 0x04
    1912:	b5 81       	ldd	r27, Z+5	; 0x05
    1914:	9c 01       	movw	r18, r24
    1916:	ad 01       	movw	r20, r26
    1918:	22 0f       	add	r18, r18
    191a:	33 1f       	adc	r19, r19
    191c:	44 1f       	adc	r20, r20
    191e:	55 1f       	adc	r21, r21
    1920:	80 e0       	ldi	r24, 0x00	; 0
    1922:	94 e2       	ldi	r25, 0x24	; 36
    1924:	a4 ef       	ldi	r26, 0xF4	; 244
    1926:	b0 e0       	ldi	r27, 0x00	; 0
    1928:	bc 01       	movw	r22, r24
    192a:	cd 01       	movw	r24, r26
    192c:	0e 94 d0 17 	call	0x2fa0	; 0x2fa0 <__udivmodsi4>
    1930:	da 01       	movw	r26, r20
    1932:	c9 01       	movw	r24, r18
    1934:	01 97       	sbiw	r24, 0x01	; 1
    1936:	f8 01       	movw	r30, r16
    1938:	91 83       	std	Z+1, r25	; 0x01
    193a:	80 83       	st	Z, r24
         end if;

         case In_Port is
    193c:	f8 01       	movw	r30, r16
    193e:	84 81       	ldd	r24, Z+4	; 0x04
    1940:	88 2f       	mov	r24, r24
    1942:	90 e0       	ldi	r25, 0x00	; 0
    1944:	a0 e0       	ldi	r26, 0x00	; 0
    1946:	b0 e0       	ldi	r27, 0x00	; 0
    1948:	84 30       	cpi	r24, 0x04	; 4
    194a:	91 05       	cpc	r25, r1
    194c:	a1 05       	cpc	r26, r1
    194e:	b1 05       	cpc	r27, r1
    1950:	08 f0       	brcs	.+2      	; 0x1954 <avr__usart__initialize__set_baud_speed.1920+0x2b8>
    1952:	7e c0       	rjmp	.+252    	; 0x1a50 <avr__usart__initialize__set_baud_speed.1920+0x3b4>
    1954:	f8 01       	movw	r30, r16
    1956:	84 81       	ldd	r24, Z+4	; 0x04
    1958:	81 30       	cpi	r24, 0x01	; 1
    195a:	19 f1       	breq	.+70     	; 0x19a2 <avr__usart__initialize__set_baud_speed.1920+0x306>
    195c:	81 30       	cpi	r24, 0x01	; 1
    195e:	18 f0       	brcs	.+6      	; 0x1966 <avr__usart__initialize__set_baud_speed.1920+0x2ca>
    1960:	82 30       	cpi	r24, 0x02	; 2
    1962:	e9 f1       	breq	.+122    	; 0x19de <avr__usart__initialize__set_baud_speed.1920+0x342>
    1964:	58 c0       	rjmp	.+176    	; 0x1a16 <avr__usart__initialize__set_baud_speed.1920+0x37a>
            when USART0 =>
               Reg_USART0.UBRR (1) := Byte_Type (Shift_Right (UBRR_Value, 8));
    1966:	f8 01       	movw	r30, r16
    1968:	80 81       	ld	r24, Z
    196a:	91 81       	ldd	r25, Z+1	; 0x01
    196c:	89 2f       	mov	r24, r25
    196e:	99 27       	eor	r25, r25
    1970:	8f 3f       	cpi	r24, 0xFF	; 255
    1972:	91 05       	cpc	r25, r1
    1974:	11 f0       	breq	.+4      	; 0x197a <avr__usart__initialize__set_baud_speed.1920+0x2de>
    1976:	08 f0       	brcs	.+2      	; 0x197a <avr__usart__initialize__set_baud_speed.1920+0x2de>
    1978:	6b c0       	rjmp	.+214    	; 0x1a50 <avr__usart__initialize__set_baud_speed.1920+0x3b4>
    197a:	20 ec       	ldi	r18, 0xC0	; 192
    197c:	30 e0       	ldi	r19, 0x00	; 0
    197e:	f9 01       	movw	r30, r18
    1980:	85 83       	std	Z+5, r24	; 0x05
               Reg_USART0.UBRR (0) := Byte_Type (UBRR_Value);
    1982:	f8 01       	movw	r30, r16
    1984:	80 81       	ld	r24, Z
    1986:	91 81       	ldd	r25, Z+1	; 0x01
    1988:	8f 3f       	cpi	r24, 0xFF	; 255
    198a:	91 05       	cpc	r25, r1
    198c:	11 f0       	breq	.+4      	; 0x1992 <avr__usart__initialize__set_baud_speed.1920+0x2f6>
    198e:	08 f0       	brcs	.+2      	; 0x1992 <avr__usart__initialize__set_baud_speed.1920+0x2f6>
    1990:	5f c0       	rjmp	.+190    	; 0x1a50 <avr__usart__initialize__set_baud_speed.1920+0x3b4>
    1992:	80 ec       	ldi	r24, 0xC0	; 192
    1994:	90 e0       	ldi	r25, 0x00	; 0
    1996:	f8 01       	movw	r30, r16
    1998:	20 81       	ld	r18, Z
    199a:	31 81       	ldd	r19, Z+1	; 0x01
    199c:	fc 01       	movw	r30, r24
    199e:	24 83       	std	Z+4, r18	; 0x04

            when USART3 =>
               Reg_USART3.UBRR (1) := Byte_Type (Shift_Right (UBRR_Value, 8));
               Reg_USART3.UBRR (0) := Byte_Type (UBRR_Value);
#end if;
         end case;
    19a0:	55 c0       	rjmp	.+170    	; 0x1a4c <avr__usart__initialize__set_baud_speed.1920+0x3b0>
               Reg_USART0.UBRR (1) := Byte_Type (Shift_Right (UBRR_Value, 8));
               Reg_USART0.UBRR (0) := Byte_Type (UBRR_Value);

#if MCU="ATMEGA2560" then
            when USART1 =>
               Reg_USART1.UBRR (1) := Byte_Type (Shift_Right (UBRR_Value, 8));
    19a2:	f8 01       	movw	r30, r16
    19a4:	80 81       	ld	r24, Z
    19a6:	91 81       	ldd	r25, Z+1	; 0x01
    19a8:	89 2f       	mov	r24, r25
    19aa:	99 27       	eor	r25, r25
    19ac:	8f 3f       	cpi	r24, 0xFF	; 255
    19ae:	91 05       	cpc	r25, r1
    19b0:	11 f0       	breq	.+4      	; 0x19b6 <avr__usart__initialize__set_baud_speed.1920+0x31a>
    19b2:	08 f0       	brcs	.+2      	; 0x19b6 <avr__usart__initialize__set_baud_speed.1920+0x31a>
    19b4:	4d c0       	rjmp	.+154    	; 0x1a50 <avr__usart__initialize__set_baud_speed.1920+0x3b4>
    19b6:	28 ec       	ldi	r18, 0xC8	; 200
    19b8:	30 e0       	ldi	r19, 0x00	; 0
    19ba:	f9 01       	movw	r30, r18
    19bc:	85 83       	std	Z+5, r24	; 0x05
               Reg_USART1.UBRR (0) := Byte_Type (UBRR_Value);
    19be:	f8 01       	movw	r30, r16
    19c0:	80 81       	ld	r24, Z
    19c2:	91 81       	ldd	r25, Z+1	; 0x01
    19c4:	8f 3f       	cpi	r24, 0xFF	; 255
    19c6:	91 05       	cpc	r25, r1
    19c8:	11 f0       	breq	.+4      	; 0x19ce <avr__usart__initialize__set_baud_speed.1920+0x332>
    19ca:	08 f0       	brcs	.+2      	; 0x19ce <avr__usart__initialize__set_baud_speed.1920+0x332>
    19cc:	41 c0       	rjmp	.+130    	; 0x1a50 <avr__usart__initialize__set_baud_speed.1920+0x3b4>
    19ce:	88 ec       	ldi	r24, 0xC8	; 200
    19d0:	90 e0       	ldi	r25, 0x00	; 0
    19d2:	f8 01       	movw	r30, r16
    19d4:	20 81       	ld	r18, Z
    19d6:	31 81       	ldd	r19, Z+1	; 0x01
    19d8:	fc 01       	movw	r30, r24
    19da:	24 83       	std	Z+4, r18	; 0x04

            when USART3 =>
               Reg_USART3.UBRR (1) := Byte_Type (Shift_Right (UBRR_Value, 8));
               Reg_USART3.UBRR (0) := Byte_Type (UBRR_Value);
#end if;
         end case;
    19dc:	37 c0       	rjmp	.+110    	; 0x1a4c <avr__usart__initialize__set_baud_speed.1920+0x3b0>
            when USART1 =>
               Reg_USART1.UBRR (1) := Byte_Type (Shift_Right (UBRR_Value, 8));
               Reg_USART1.UBRR (0) := Byte_Type (UBRR_Value);

            when USART2 =>
               Reg_USART2.UBRR (1) := Byte_Type (Shift_Right (UBRR_Value, 8));
    19de:	f8 01       	movw	r30, r16
    19e0:	80 81       	ld	r24, Z
    19e2:	91 81       	ldd	r25, Z+1	; 0x01
    19e4:	89 2f       	mov	r24, r25
    19e6:	99 27       	eor	r25, r25
    19e8:	8f 3f       	cpi	r24, 0xFF	; 255
    19ea:	91 05       	cpc	r25, r1
    19ec:	09 f0       	breq	.+2      	; 0x19f0 <avr__usart__initialize__set_baud_speed.1920+0x354>
    19ee:	80 f5       	brcc	.+96     	; 0x1a50 <avr__usart__initialize__set_baud_speed.1920+0x3b4>
    19f0:	20 ed       	ldi	r18, 0xD0	; 208
    19f2:	30 e0       	ldi	r19, 0x00	; 0
    19f4:	f9 01       	movw	r30, r18
    19f6:	85 83       	std	Z+5, r24	; 0x05
               Reg_USART2.UBRR (0) := Byte_Type (UBRR_Value);
    19f8:	f8 01       	movw	r30, r16
    19fa:	80 81       	ld	r24, Z
    19fc:	91 81       	ldd	r25, Z+1	; 0x01
    19fe:	8f 3f       	cpi	r24, 0xFF	; 255
    1a00:	91 05       	cpc	r25, r1
    1a02:	09 f0       	breq	.+2      	; 0x1a06 <avr__usart__initialize__set_baud_speed.1920+0x36a>
    1a04:	28 f5       	brcc	.+74     	; 0x1a50 <avr__usart__initialize__set_baud_speed.1920+0x3b4>
    1a06:	80 ed       	ldi	r24, 0xD0	; 208
    1a08:	90 e0       	ldi	r25, 0x00	; 0
    1a0a:	f8 01       	movw	r30, r16
    1a0c:	20 81       	ld	r18, Z
    1a0e:	31 81       	ldd	r19, Z+1	; 0x01
    1a10:	fc 01       	movw	r30, r24
    1a12:	24 83       	std	Z+4, r18	; 0x04

            when USART3 =>
               Reg_USART3.UBRR (1) := Byte_Type (Shift_Right (UBRR_Value, 8));
               Reg_USART3.UBRR (0) := Byte_Type (UBRR_Value);
#end if;
         end case;
    1a14:	1b c0       	rjmp	.+54     	; 0x1a4c <avr__usart__initialize__set_baud_speed.1920+0x3b0>
            when USART2 =>
               Reg_USART2.UBRR (1) := Byte_Type (Shift_Right (UBRR_Value, 8));
               Reg_USART2.UBRR (0) := Byte_Type (UBRR_Value);

            when USART3 =>
               Reg_USART3.UBRR (1) := Byte_Type (Shift_Right (UBRR_Value, 8));
    1a16:	f8 01       	movw	r30, r16
    1a18:	80 81       	ld	r24, Z
    1a1a:	91 81       	ldd	r25, Z+1	; 0x01
    1a1c:	89 2f       	mov	r24, r25
    1a1e:	99 27       	eor	r25, r25
    1a20:	8f 3f       	cpi	r24, 0xFF	; 255
    1a22:	91 05       	cpc	r25, r1
    1a24:	09 f0       	breq	.+2      	; 0x1a28 <avr__usart__initialize__set_baud_speed.1920+0x38c>
    1a26:	a0 f4       	brcc	.+40     	; 0x1a50 <avr__usart__initialize__set_baud_speed.1920+0x3b4>
    1a28:	20 e3       	ldi	r18, 0x30	; 48
    1a2a:	31 e0       	ldi	r19, 0x01	; 1
    1a2c:	f9 01       	movw	r30, r18
    1a2e:	85 83       	std	Z+5, r24	; 0x05
               Reg_USART3.UBRR (0) := Byte_Type (UBRR_Value);
    1a30:	f8 01       	movw	r30, r16
    1a32:	80 81       	ld	r24, Z
    1a34:	91 81       	ldd	r25, Z+1	; 0x01
    1a36:	8f 3f       	cpi	r24, 0xFF	; 255
    1a38:	91 05       	cpc	r25, r1
    1a3a:	09 f0       	breq	.+2      	; 0x1a3e <avr__usart__initialize__set_baud_speed.1920+0x3a2>
    1a3c:	48 f4       	brcc	.+18     	; 0x1a50 <avr__usart__initialize__set_baud_speed.1920+0x3b4>
    1a3e:	80 e3       	ldi	r24, 0x30	; 48
    1a40:	91 e0       	ldi	r25, 0x01	; 1
    1a42:	f8 01       	movw	r30, r16
    1a44:	20 81       	ld	r18, Z
    1a46:	31 81       	ldd	r19, Z+1	; 0x01
    1a48:	fc 01       	movw	r30, r24
    1a4a:	24 83       	std	Z+4, r18	; 0x04
#end if;
         end case;
    1a4c:	00 00       	nop

      exception
         when others => null;
    1a4e:	01 c0       	rjmp	.+2      	; 0x1a52 <avr__usart__initialize__set_baud_speed.1920+0x3b6>
    1a50:	00 00       	nop
      end Set_Baud_Speed;
    1a52:	00 00       	nop
    1a54:	0f 90       	pop	r0
    1a56:	0f 90       	pop	r0
    1a58:	cf 91       	pop	r28
    1a5a:	df 91       	pop	r29
    1a5c:	1f 91       	pop	r17
    1a5e:	0f 91       	pop	r16
    1a60:	3f 90       	pop	r3
    1a62:	2f 90       	pop	r2
    1a64:	08 95       	ret

00001a66 <avr__usart__initialize__set_data_bits.1922>:

      procedure Set_Data_Bits is
    1a66:	2f 92       	push	r2
    1a68:	3f 92       	push	r3
    1a6a:	0f 93       	push	r16
    1a6c:	1f 93       	push	r17
    1a6e:	df 93       	push	r29
    1a70:	cf 93       	push	r28
    1a72:	0f 92       	push	r0
    1a74:	0f 92       	push	r0
    1a76:	cd b7       	in	r28, 0x3d	; 61
    1a78:	de b7       	in	r29, 0x3e	; 62
    1a7a:	81 01       	movw	r16, r2
    1a7c:	3a 82       	std	Y+2, r3	; 0x02
    1a7e:	29 82       	std	Y+1, r2	; 0x01
      begin
         case In_Port is
    1a80:	f8 01       	movw	r30, r16
    1a82:	84 81       	ldd	r24, Z+4	; 0x04
    1a84:	88 2f       	mov	r24, r24
    1a86:	90 e0       	ldi	r25, 0x00	; 0
    1a88:	a0 e0       	ldi	r26, 0x00	; 0
    1a8a:	b0 e0       	ldi	r27, 0x00	; 0
    1a8c:	84 30       	cpi	r24, 0x04	; 4
    1a8e:	91 05       	cpc	r25, r1
    1a90:	a1 05       	cpc	r26, r1
    1a92:	b1 05       	cpc	r27, r1
    1a94:	08 f0       	brcs	.+2      	; 0x1a98 <avr__usart__initialize__set_data_bits.1922+0x32>
    1a96:	50 c1       	rjmp	.+672    	; 0x1d38 <avr__usart__initialize__set_data_bits.1922+0x2d2>
    1a98:	f8 01       	movw	r30, r16
    1a9a:	84 81       	ldd	r24, Z+4	; 0x04
    1a9c:	81 30       	cpi	r24, 0x01	; 1
    1a9e:	09 f4       	brne	.+2      	; 0x1aa2 <avr__usart__initialize__set_data_bits.1922+0x3c>
    1aa0:	57 c0       	rjmp	.+174    	; 0x1b50 <avr__usart__initialize__set_data_bits.1922+0xea>
    1aa2:	81 30       	cpi	r24, 0x01	; 1
    1aa4:	20 f0       	brcs	.+8      	; 0x1aae <avr__usart__initialize__set_data_bits.1922+0x48>
    1aa6:	82 30       	cpi	r24, 0x02	; 2
    1aa8:	09 f4       	brne	.+2      	; 0x1aac <avr__usart__initialize__set_data_bits.1922+0x46>
    1aaa:	a3 c0       	rjmp	.+326    	; 0x1bf2 <avr__usart__initialize__set_data_bits.1922+0x18c>
    1aac:	f3 c0       	rjmp	.+486    	; 0x1c94 <avr__usart__initialize__set_data_bits.1922+0x22e>
            when USART0 =>
               case In_Setup.Data_Bits is
    1aae:	f8 01       	movw	r30, r16
    1ab0:	82 81       	ldd	r24, Z+2	; 0x02
    1ab2:	93 81       	ldd	r25, Z+3	; 0x03
    1ab4:	fc 01       	movw	r30, r24
    1ab6:	86 81       	ldd	r24, Z+6	; 0x06
    1ab8:	60 e0       	ldi	r22, 0x00	; 0
    1aba:	0e 94 52 08 	call	0x10a4	; 0x10a4 <avr__usart__data_bits_typeRP>
    1abe:	99 23       	and	r25, r25
    1ac0:	0c f4       	brge	.+2      	; 0x1ac4 <avr__usart__initialize__set_data_bits.1922+0x5e>
    1ac2:	3a c1       	rjmp	.+628    	; 0x1d38 <avr__usart__initialize__set_data_bits.1922+0x2d2>
    1ac4:	f8 01       	movw	r30, r16
    1ac6:	82 81       	ldd	r24, Z+2	; 0x02
    1ac8:	93 81       	ldd	r25, Z+3	; 0x03
    1aca:	fc 01       	movw	r30, r24
    1acc:	86 81       	ldd	r24, Z+6	; 0x06
    1ace:	81 30       	cpi	r24, 0x01	; 1
    1ad0:	49 f0       	breq	.+18     	; 0x1ae4 <avr__usart__initialize__set_data_bits.1922+0x7e>
    1ad2:	81 30       	cpi	r24, 0x01	; 1
    1ad4:	28 f0       	brcs	.+10     	; 0x1ae0 <avr__usart__initialize__set_data_bits.1922+0x7a>
    1ad6:	82 30       	cpi	r24, 0x02	; 2
    1ad8:	69 f0       	breq	.+26     	; 0x1af4 <avr__usart__initialize__set_data_bits.1922+0x8e>
    1ada:	83 30       	cpi	r24, 0x03	; 3
    1adc:	99 f0       	breq	.+38     	; 0x1b04 <avr__usart__initialize__set_data_bits.1922+0x9e>
    1ade:	21 c0       	rjmp	.+66     	; 0x1b22 <avr__usart__initialize__set_data_bits.1922+0xbc>
                  when BITS_5 => null; -- Add null;
    1ae0:	00 00       	nop
                     Reg_USART0.UCSRC.UCSZ1 := TRUE;
                  when BITS_9 =>
                     Reg_USART0.UCSRC.UCSZ0 := TRUE;
                     Reg_USART0.UCSRC.UCSZ1 := TRUE;
                     Reg_USART0.UCSRB.UCSZ2 := TRUE;
               end case;
    1ae2:	34 c0       	rjmp	.+104    	; 0x1b4c <avr__usart__initialize__set_data_bits.1922+0xe6>
         case In_Port is
            when USART0 =>
               case In_Setup.Data_Bits is
                  when BITS_5 => null; -- Add null;
                  when BITS_6 =>
                     Reg_USART0.UCSRC.UCSZ0 := TRUE;
    1ae4:	80 ec       	ldi	r24, 0xC0	; 192
    1ae6:	90 e0       	ldi	r25, 0x00	; 0
    1ae8:	fc 01       	movw	r30, r24
    1aea:	22 81       	ldd	r18, Z+2	; 0x02
    1aec:	22 60       	ori	r18, 0x02	; 2
    1aee:	fc 01       	movw	r30, r24
    1af0:	22 83       	std	Z+2, r18	; 0x02
                     Reg_USART0.UCSRC.UCSZ1 := TRUE;
                  when BITS_9 =>
                     Reg_USART0.UCSRC.UCSZ0 := TRUE;
                     Reg_USART0.UCSRC.UCSZ1 := TRUE;
                     Reg_USART0.UCSRB.UCSZ2 := TRUE;
               end case;
    1af2:	2c c0       	rjmp	.+88     	; 0x1b4c <avr__usart__initialize__set_data_bits.1922+0xe6>
               case In_Setup.Data_Bits is
                  when BITS_5 => null; -- Add null;
                  when BITS_6 =>
                     Reg_USART0.UCSRC.UCSZ0 := TRUE;
                  when BITS_7 =>
                     Reg_USART0.UCSRC.UCSZ1 := TRUE;
    1af4:	80 ec       	ldi	r24, 0xC0	; 192
    1af6:	90 e0       	ldi	r25, 0x00	; 0
    1af8:	fc 01       	movw	r30, r24
    1afa:	22 81       	ldd	r18, Z+2	; 0x02
    1afc:	24 60       	ori	r18, 0x04	; 4
    1afe:	fc 01       	movw	r30, r24
    1b00:	22 83       	std	Z+2, r18	; 0x02
                     Reg_USART0.UCSRC.UCSZ1 := TRUE;
                  when BITS_9 =>
                     Reg_USART0.UCSRC.UCSZ0 := TRUE;
                     Reg_USART0.UCSRC.UCSZ1 := TRUE;
                     Reg_USART0.UCSRB.UCSZ2 := TRUE;
               end case;
    1b02:	24 c0       	rjmp	.+72     	; 0x1b4c <avr__usart__initialize__set_data_bits.1922+0xe6>
                  when BITS_6 =>
                     Reg_USART0.UCSRC.UCSZ0 := TRUE;
                  when BITS_7 =>
                     Reg_USART0.UCSRC.UCSZ1 := TRUE;
                  when BITS_8 =>
                     Reg_USART0.UCSRC.UCSZ0 := TRUE;
    1b04:	80 ec       	ldi	r24, 0xC0	; 192
    1b06:	90 e0       	ldi	r25, 0x00	; 0
    1b08:	fc 01       	movw	r30, r24
    1b0a:	22 81       	ldd	r18, Z+2	; 0x02
    1b0c:	22 60       	ori	r18, 0x02	; 2
    1b0e:	fc 01       	movw	r30, r24
    1b10:	22 83       	std	Z+2, r18	; 0x02
                     Reg_USART0.UCSRC.UCSZ1 := TRUE;
    1b12:	80 ec       	ldi	r24, 0xC0	; 192
    1b14:	90 e0       	ldi	r25, 0x00	; 0
    1b16:	fc 01       	movw	r30, r24
    1b18:	22 81       	ldd	r18, Z+2	; 0x02
    1b1a:	24 60       	ori	r18, 0x04	; 4
    1b1c:	fc 01       	movw	r30, r24
    1b1e:	22 83       	std	Z+2, r18	; 0x02
                  when BITS_9 =>
                     Reg_USART0.UCSRC.UCSZ0 := TRUE;
                     Reg_USART0.UCSRC.UCSZ1 := TRUE;
                     Reg_USART0.UCSRB.UCSZ2 := TRUE;
               end case;
    1b20:	15 c0       	rjmp	.+42     	; 0x1b4c <avr__usart__initialize__set_data_bits.1922+0xe6>
                     Reg_USART0.UCSRC.UCSZ1 := TRUE;
                  when BITS_8 =>
                     Reg_USART0.UCSRC.UCSZ0 := TRUE;
                     Reg_USART0.UCSRC.UCSZ1 := TRUE;
                  when BITS_9 =>
                     Reg_USART0.UCSRC.UCSZ0 := TRUE;
    1b22:	80 ec       	ldi	r24, 0xC0	; 192
    1b24:	90 e0       	ldi	r25, 0x00	; 0
    1b26:	fc 01       	movw	r30, r24
    1b28:	22 81       	ldd	r18, Z+2	; 0x02
    1b2a:	22 60       	ori	r18, 0x02	; 2
    1b2c:	fc 01       	movw	r30, r24
    1b2e:	22 83       	std	Z+2, r18	; 0x02
                     Reg_USART0.UCSRC.UCSZ1 := TRUE;
    1b30:	80 ec       	ldi	r24, 0xC0	; 192
    1b32:	90 e0       	ldi	r25, 0x00	; 0
    1b34:	fc 01       	movw	r30, r24
    1b36:	22 81       	ldd	r18, Z+2	; 0x02
    1b38:	24 60       	ori	r18, 0x04	; 4
    1b3a:	fc 01       	movw	r30, r24
    1b3c:	22 83       	std	Z+2, r18	; 0x02
                     Reg_USART0.UCSRB.UCSZ2 := TRUE;
    1b3e:	80 ec       	ldi	r24, 0xC0	; 192
    1b40:	90 e0       	ldi	r25, 0x00	; 0
    1b42:	fc 01       	movw	r30, r24
    1b44:	21 81       	ldd	r18, Z+1	; 0x01
    1b46:	24 60       	ori	r18, 0x04	; 4
    1b48:	fc 01       	movw	r30, r24
    1b4a:	21 83       	std	Z+1, r18	; 0x01
               end case;
    1b4c:	00 00       	nop
                     Reg_USART3.UCSRC.UCSZ0 := TRUE;
                     Reg_USART3.UCSRC.UCSZ1 := TRUE;
                     Reg_USART3.UCSRB.UCSZ2 := TRUE;
               end case;
#end if;
         end case;
    1b4e:	f2 c0       	rjmp	.+484    	; 0x1d34 <avr__usart__initialize__set_data_bits.1922+0x2ce>
                     Reg_USART0.UCSRB.UCSZ2 := TRUE;
               end case;

#if MCU="ATMEGA2560" then
            when USART1 =>
               case In_Setup.Data_Bits is
    1b50:	f8 01       	movw	r30, r16
    1b52:	82 81       	ldd	r24, Z+2	; 0x02
    1b54:	93 81       	ldd	r25, Z+3	; 0x03
    1b56:	fc 01       	movw	r30, r24
    1b58:	86 81       	ldd	r24, Z+6	; 0x06
    1b5a:	60 e0       	ldi	r22, 0x00	; 0
    1b5c:	0e 94 52 08 	call	0x10a4	; 0x10a4 <avr__usart__data_bits_typeRP>
    1b60:	99 23       	and	r25, r25
    1b62:	0c f4       	brge	.+2      	; 0x1b66 <avr__usart__initialize__set_data_bits.1922+0x100>
    1b64:	e9 c0       	rjmp	.+466    	; 0x1d38 <avr__usart__initialize__set_data_bits.1922+0x2d2>
    1b66:	f8 01       	movw	r30, r16
    1b68:	82 81       	ldd	r24, Z+2	; 0x02
    1b6a:	93 81       	ldd	r25, Z+3	; 0x03
    1b6c:	fc 01       	movw	r30, r24
    1b6e:	86 81       	ldd	r24, Z+6	; 0x06
    1b70:	81 30       	cpi	r24, 0x01	; 1
    1b72:	49 f0       	breq	.+18     	; 0x1b86 <avr__usart__initialize__set_data_bits.1922+0x120>
    1b74:	81 30       	cpi	r24, 0x01	; 1
    1b76:	28 f0       	brcs	.+10     	; 0x1b82 <avr__usart__initialize__set_data_bits.1922+0x11c>
    1b78:	82 30       	cpi	r24, 0x02	; 2
    1b7a:	69 f0       	breq	.+26     	; 0x1b96 <avr__usart__initialize__set_data_bits.1922+0x130>
    1b7c:	83 30       	cpi	r24, 0x03	; 3
    1b7e:	99 f0       	breq	.+38     	; 0x1ba6 <avr__usart__initialize__set_data_bits.1922+0x140>
    1b80:	21 c0       	rjmp	.+66     	; 0x1bc4 <avr__usart__initialize__set_data_bits.1922+0x15e>
                  when BITS_5 => null; -- Add null;
    1b82:	00 00       	nop
                     Reg_USART1.UCSRC.UCSZ1 := TRUE;
                  when BITS_9 =>
                     Reg_USART1.UCSRC.UCSZ0 := TRUE;
                     Reg_USART1.UCSRC.UCSZ1 := TRUE;
                     Reg_USART1.UCSRB.UCSZ2 := TRUE;
               end case;
    1b84:	34 c0       	rjmp	.+104    	; 0x1bee <avr__usart__initialize__set_data_bits.1922+0x188>
#if MCU="ATMEGA2560" then
            when USART1 =>
               case In_Setup.Data_Bits is
                  when BITS_5 => null; -- Add null;
                  when BITS_6 =>
                     Reg_USART1.UCSRC.UCSZ0 := TRUE;
    1b86:	88 ec       	ldi	r24, 0xC8	; 200
    1b88:	90 e0       	ldi	r25, 0x00	; 0
    1b8a:	fc 01       	movw	r30, r24
    1b8c:	22 81       	ldd	r18, Z+2	; 0x02
    1b8e:	22 60       	ori	r18, 0x02	; 2
    1b90:	fc 01       	movw	r30, r24
    1b92:	22 83       	std	Z+2, r18	; 0x02
                     Reg_USART1.UCSRC.UCSZ1 := TRUE;
                  when BITS_9 =>
                     Reg_USART1.UCSRC.UCSZ0 := TRUE;
                     Reg_USART1.UCSRC.UCSZ1 := TRUE;
                     Reg_USART1.UCSRB.UCSZ2 := TRUE;
               end case;
    1b94:	2c c0       	rjmp	.+88     	; 0x1bee <avr__usart__initialize__set_data_bits.1922+0x188>
               case In_Setup.Data_Bits is
                  when BITS_5 => null; -- Add null;
                  when BITS_6 =>
                     Reg_USART1.UCSRC.UCSZ0 := TRUE;
                  when BITS_7 =>
                     Reg_USART1.UCSRC.UCSZ1 := TRUE;
    1b96:	88 ec       	ldi	r24, 0xC8	; 200
    1b98:	90 e0       	ldi	r25, 0x00	; 0
    1b9a:	fc 01       	movw	r30, r24
    1b9c:	22 81       	ldd	r18, Z+2	; 0x02
    1b9e:	24 60       	ori	r18, 0x04	; 4
    1ba0:	fc 01       	movw	r30, r24
    1ba2:	22 83       	std	Z+2, r18	; 0x02
                     Reg_USART1.UCSRC.UCSZ1 := TRUE;
                  when BITS_9 =>
                     Reg_USART1.UCSRC.UCSZ0 := TRUE;
                     Reg_USART1.UCSRC.UCSZ1 := TRUE;
                     Reg_USART1.UCSRB.UCSZ2 := TRUE;
               end case;
    1ba4:	24 c0       	rjmp	.+72     	; 0x1bee <avr__usart__initialize__set_data_bits.1922+0x188>
                  when BITS_6 =>
                     Reg_USART1.UCSRC.UCSZ0 := TRUE;
                  when BITS_7 =>
                     Reg_USART1.UCSRC.UCSZ1 := TRUE;
                  when BITS_8 =>
                     Reg_USART1.UCSRC.UCSZ0 := TRUE;
    1ba6:	88 ec       	ldi	r24, 0xC8	; 200
    1ba8:	90 e0       	ldi	r25, 0x00	; 0
    1baa:	fc 01       	movw	r30, r24
    1bac:	22 81       	ldd	r18, Z+2	; 0x02
    1bae:	22 60       	ori	r18, 0x02	; 2
    1bb0:	fc 01       	movw	r30, r24
    1bb2:	22 83       	std	Z+2, r18	; 0x02
                     Reg_USART1.UCSRC.UCSZ1 := TRUE;
    1bb4:	88 ec       	ldi	r24, 0xC8	; 200
    1bb6:	90 e0       	ldi	r25, 0x00	; 0
    1bb8:	fc 01       	movw	r30, r24
    1bba:	22 81       	ldd	r18, Z+2	; 0x02
    1bbc:	24 60       	ori	r18, 0x04	; 4
    1bbe:	fc 01       	movw	r30, r24
    1bc0:	22 83       	std	Z+2, r18	; 0x02
                  when BITS_9 =>
                     Reg_USART1.UCSRC.UCSZ0 := TRUE;
                     Reg_USART1.UCSRC.UCSZ1 := TRUE;
                     Reg_USART1.UCSRB.UCSZ2 := TRUE;
               end case;
    1bc2:	15 c0       	rjmp	.+42     	; 0x1bee <avr__usart__initialize__set_data_bits.1922+0x188>
                     Reg_USART1.UCSRC.UCSZ1 := TRUE;
                  when BITS_8 =>
                     Reg_USART1.UCSRC.UCSZ0 := TRUE;
                     Reg_USART1.UCSRC.UCSZ1 := TRUE;
                  when BITS_9 =>
                     Reg_USART1.UCSRC.UCSZ0 := TRUE;
    1bc4:	88 ec       	ldi	r24, 0xC8	; 200
    1bc6:	90 e0       	ldi	r25, 0x00	; 0
    1bc8:	fc 01       	movw	r30, r24
    1bca:	22 81       	ldd	r18, Z+2	; 0x02
    1bcc:	22 60       	ori	r18, 0x02	; 2
    1bce:	fc 01       	movw	r30, r24
    1bd0:	22 83       	std	Z+2, r18	; 0x02
                     Reg_USART1.UCSRC.UCSZ1 := TRUE;
    1bd2:	88 ec       	ldi	r24, 0xC8	; 200
    1bd4:	90 e0       	ldi	r25, 0x00	; 0
    1bd6:	fc 01       	movw	r30, r24
    1bd8:	22 81       	ldd	r18, Z+2	; 0x02
    1bda:	24 60       	ori	r18, 0x04	; 4
    1bdc:	fc 01       	movw	r30, r24
    1bde:	22 83       	std	Z+2, r18	; 0x02
                     Reg_USART1.UCSRB.UCSZ2 := TRUE;
    1be0:	88 ec       	ldi	r24, 0xC8	; 200
    1be2:	90 e0       	ldi	r25, 0x00	; 0
    1be4:	fc 01       	movw	r30, r24
    1be6:	21 81       	ldd	r18, Z+1	; 0x01
    1be8:	24 60       	ori	r18, 0x04	; 4
    1bea:	fc 01       	movw	r30, r24
    1bec:	21 83       	std	Z+1, r18	; 0x01
               end case;
    1bee:	00 00       	nop
                     Reg_USART3.UCSRC.UCSZ0 := TRUE;
                     Reg_USART3.UCSRC.UCSZ1 := TRUE;
                     Reg_USART3.UCSRB.UCSZ2 := TRUE;
               end case;
#end if;
         end case;
    1bf0:	a1 c0       	rjmp	.+322    	; 0x1d34 <avr__usart__initialize__set_data_bits.1922+0x2ce>
                     Reg_USART1.UCSRC.UCSZ1 := TRUE;
                     Reg_USART1.UCSRB.UCSZ2 := TRUE;
               end case;

            when USART2 =>
               case In_Setup.Data_Bits is
    1bf2:	f8 01       	movw	r30, r16
    1bf4:	82 81       	ldd	r24, Z+2	; 0x02
    1bf6:	93 81       	ldd	r25, Z+3	; 0x03
    1bf8:	fc 01       	movw	r30, r24
    1bfa:	86 81       	ldd	r24, Z+6	; 0x06
    1bfc:	60 e0       	ldi	r22, 0x00	; 0
    1bfe:	0e 94 52 08 	call	0x10a4	; 0x10a4 <avr__usart__data_bits_typeRP>
    1c02:	99 23       	and	r25, r25
    1c04:	0c f4       	brge	.+2      	; 0x1c08 <avr__usart__initialize__set_data_bits.1922+0x1a2>
    1c06:	98 c0       	rjmp	.+304    	; 0x1d38 <avr__usart__initialize__set_data_bits.1922+0x2d2>
    1c08:	f8 01       	movw	r30, r16
    1c0a:	82 81       	ldd	r24, Z+2	; 0x02
    1c0c:	93 81       	ldd	r25, Z+3	; 0x03
    1c0e:	fc 01       	movw	r30, r24
    1c10:	86 81       	ldd	r24, Z+6	; 0x06
    1c12:	81 30       	cpi	r24, 0x01	; 1
    1c14:	49 f0       	breq	.+18     	; 0x1c28 <avr__usart__initialize__set_data_bits.1922+0x1c2>
    1c16:	81 30       	cpi	r24, 0x01	; 1
    1c18:	28 f0       	brcs	.+10     	; 0x1c24 <avr__usart__initialize__set_data_bits.1922+0x1be>
    1c1a:	82 30       	cpi	r24, 0x02	; 2
    1c1c:	69 f0       	breq	.+26     	; 0x1c38 <avr__usart__initialize__set_data_bits.1922+0x1d2>
    1c1e:	83 30       	cpi	r24, 0x03	; 3
    1c20:	99 f0       	breq	.+38     	; 0x1c48 <avr__usart__initialize__set_data_bits.1922+0x1e2>
    1c22:	21 c0       	rjmp	.+66     	; 0x1c66 <avr__usart__initialize__set_data_bits.1922+0x200>
                  when BITS_5 => null; -- Add null;
    1c24:	00 00       	nop
                     Reg_USART2.UCSRC.UCSZ1 := TRUE;
                  when BITS_9 =>
                     Reg_USART2.UCSRC.UCSZ0 := TRUE;
                     Reg_USART2.UCSRC.UCSZ1 := TRUE;
                     Reg_USART2.UCSRB.UCSZ2 := TRUE;
               end case;
    1c26:	34 c0       	rjmp	.+104    	; 0x1c90 <avr__usart__initialize__set_data_bits.1922+0x22a>

            when USART2 =>
               case In_Setup.Data_Bits is
                  when BITS_5 => null; -- Add null;
                  when BITS_6 =>
                     Reg_USART2.UCSRC.UCSZ0 := TRUE;
    1c28:	80 ed       	ldi	r24, 0xD0	; 208
    1c2a:	90 e0       	ldi	r25, 0x00	; 0
    1c2c:	fc 01       	movw	r30, r24
    1c2e:	22 81       	ldd	r18, Z+2	; 0x02
    1c30:	22 60       	ori	r18, 0x02	; 2
    1c32:	fc 01       	movw	r30, r24
    1c34:	22 83       	std	Z+2, r18	; 0x02
                     Reg_USART2.UCSRC.UCSZ1 := TRUE;
                  when BITS_9 =>
                     Reg_USART2.UCSRC.UCSZ0 := TRUE;
                     Reg_USART2.UCSRC.UCSZ1 := TRUE;
                     Reg_USART2.UCSRB.UCSZ2 := TRUE;
               end case;
    1c36:	2c c0       	rjmp	.+88     	; 0x1c90 <avr__usart__initialize__set_data_bits.1922+0x22a>
               case In_Setup.Data_Bits is
                  when BITS_5 => null; -- Add null;
                  when BITS_6 =>
                     Reg_USART2.UCSRC.UCSZ0 := TRUE;
                  when BITS_7 =>
                     Reg_USART2.UCSRC.UCSZ1 := TRUE;
    1c38:	80 ed       	ldi	r24, 0xD0	; 208
    1c3a:	90 e0       	ldi	r25, 0x00	; 0
    1c3c:	fc 01       	movw	r30, r24
    1c3e:	22 81       	ldd	r18, Z+2	; 0x02
    1c40:	24 60       	ori	r18, 0x04	; 4
    1c42:	fc 01       	movw	r30, r24
    1c44:	22 83       	std	Z+2, r18	; 0x02
                     Reg_USART2.UCSRC.UCSZ1 := TRUE;
                  when BITS_9 =>
                     Reg_USART2.UCSRC.UCSZ0 := TRUE;
                     Reg_USART2.UCSRC.UCSZ1 := TRUE;
                     Reg_USART2.UCSRB.UCSZ2 := TRUE;
               end case;
    1c46:	24 c0       	rjmp	.+72     	; 0x1c90 <avr__usart__initialize__set_data_bits.1922+0x22a>
                  when BITS_6 =>
                     Reg_USART2.UCSRC.UCSZ0 := TRUE;
                  when BITS_7 =>
                     Reg_USART2.UCSRC.UCSZ1 := TRUE;
                  when BITS_8 =>
                     Reg_USART2.UCSRC.UCSZ0 := TRUE;
    1c48:	80 ed       	ldi	r24, 0xD0	; 208
    1c4a:	90 e0       	ldi	r25, 0x00	; 0
    1c4c:	fc 01       	movw	r30, r24
    1c4e:	22 81       	ldd	r18, Z+2	; 0x02
    1c50:	22 60       	ori	r18, 0x02	; 2
    1c52:	fc 01       	movw	r30, r24
    1c54:	22 83       	std	Z+2, r18	; 0x02
                     Reg_USART2.UCSRC.UCSZ1 := TRUE;
    1c56:	80 ed       	ldi	r24, 0xD0	; 208
    1c58:	90 e0       	ldi	r25, 0x00	; 0
    1c5a:	fc 01       	movw	r30, r24
    1c5c:	22 81       	ldd	r18, Z+2	; 0x02
    1c5e:	24 60       	ori	r18, 0x04	; 4
    1c60:	fc 01       	movw	r30, r24
    1c62:	22 83       	std	Z+2, r18	; 0x02
                  when BITS_9 =>
                     Reg_USART2.UCSRC.UCSZ0 := TRUE;
                     Reg_USART2.UCSRC.UCSZ1 := TRUE;
                     Reg_USART2.UCSRB.UCSZ2 := TRUE;
               end case;
    1c64:	15 c0       	rjmp	.+42     	; 0x1c90 <avr__usart__initialize__set_data_bits.1922+0x22a>
                     Reg_USART2.UCSRC.UCSZ1 := TRUE;
                  when BITS_8 =>
                     Reg_USART2.UCSRC.UCSZ0 := TRUE;
                     Reg_USART2.UCSRC.UCSZ1 := TRUE;
                  when BITS_9 =>
                     Reg_USART2.UCSRC.UCSZ0 := TRUE;
    1c66:	80 ed       	ldi	r24, 0xD0	; 208
    1c68:	90 e0       	ldi	r25, 0x00	; 0
    1c6a:	fc 01       	movw	r30, r24
    1c6c:	22 81       	ldd	r18, Z+2	; 0x02
    1c6e:	22 60       	ori	r18, 0x02	; 2
    1c70:	fc 01       	movw	r30, r24
    1c72:	22 83       	std	Z+2, r18	; 0x02
                     Reg_USART2.UCSRC.UCSZ1 := TRUE;
    1c74:	80 ed       	ldi	r24, 0xD0	; 208
    1c76:	90 e0       	ldi	r25, 0x00	; 0
    1c78:	fc 01       	movw	r30, r24
    1c7a:	22 81       	ldd	r18, Z+2	; 0x02
    1c7c:	24 60       	ori	r18, 0x04	; 4
    1c7e:	fc 01       	movw	r30, r24
    1c80:	22 83       	std	Z+2, r18	; 0x02
                     Reg_USART2.UCSRB.UCSZ2 := TRUE;
    1c82:	80 ed       	ldi	r24, 0xD0	; 208
    1c84:	90 e0       	ldi	r25, 0x00	; 0
    1c86:	fc 01       	movw	r30, r24
    1c88:	21 81       	ldd	r18, Z+1	; 0x01
    1c8a:	24 60       	ori	r18, 0x04	; 4
    1c8c:	fc 01       	movw	r30, r24
    1c8e:	21 83       	std	Z+1, r18	; 0x01
               end case;
    1c90:	00 00       	nop
                     Reg_USART3.UCSRC.UCSZ0 := TRUE;
                     Reg_USART3.UCSRC.UCSZ1 := TRUE;
                     Reg_USART3.UCSRB.UCSZ2 := TRUE;
               end case;
#end if;
         end case;
    1c92:	50 c0       	rjmp	.+160    	; 0x1d34 <avr__usart__initialize__set_data_bits.1922+0x2ce>
                     Reg_USART2.UCSRC.UCSZ1 := TRUE;
                     Reg_USART2.UCSRB.UCSZ2 := TRUE;
               end case;

            when USART3 =>
               case In_Setup.Data_Bits is
    1c94:	f8 01       	movw	r30, r16
    1c96:	82 81       	ldd	r24, Z+2	; 0x02
    1c98:	93 81       	ldd	r25, Z+3	; 0x03
    1c9a:	fc 01       	movw	r30, r24
    1c9c:	86 81       	ldd	r24, Z+6	; 0x06
    1c9e:	60 e0       	ldi	r22, 0x00	; 0
    1ca0:	0e 94 52 08 	call	0x10a4	; 0x10a4 <avr__usart__data_bits_typeRP>
    1ca4:	99 23       	and	r25, r25
    1ca6:	0c f4       	brge	.+2      	; 0x1caa <avr__usart__initialize__set_data_bits.1922+0x244>
    1ca8:	47 c0       	rjmp	.+142    	; 0x1d38 <avr__usart__initialize__set_data_bits.1922+0x2d2>
    1caa:	f8 01       	movw	r30, r16
    1cac:	82 81       	ldd	r24, Z+2	; 0x02
    1cae:	93 81       	ldd	r25, Z+3	; 0x03
    1cb0:	fc 01       	movw	r30, r24
    1cb2:	86 81       	ldd	r24, Z+6	; 0x06
    1cb4:	81 30       	cpi	r24, 0x01	; 1
    1cb6:	49 f0       	breq	.+18     	; 0x1cca <avr__usart__initialize__set_data_bits.1922+0x264>
    1cb8:	81 30       	cpi	r24, 0x01	; 1
    1cba:	28 f0       	brcs	.+10     	; 0x1cc6 <avr__usart__initialize__set_data_bits.1922+0x260>
    1cbc:	82 30       	cpi	r24, 0x02	; 2
    1cbe:	69 f0       	breq	.+26     	; 0x1cda <avr__usart__initialize__set_data_bits.1922+0x274>
    1cc0:	83 30       	cpi	r24, 0x03	; 3
    1cc2:	99 f0       	breq	.+38     	; 0x1cea <avr__usart__initialize__set_data_bits.1922+0x284>
    1cc4:	21 c0       	rjmp	.+66     	; 0x1d08 <avr__usart__initialize__set_data_bits.1922+0x2a2>
                  when BITS_5 => null; -- Add null;
    1cc6:	00 00       	nop
                     Reg_USART3.UCSRC.UCSZ1 := TRUE;
                  when BITS_9 =>
                     Reg_USART3.UCSRC.UCSZ0 := TRUE;
                     Reg_USART3.UCSRC.UCSZ1 := TRUE;
                     Reg_USART3.UCSRB.UCSZ2 := TRUE;
               end case;
    1cc8:	34 c0       	rjmp	.+104    	; 0x1d32 <avr__usart__initialize__set_data_bits.1922+0x2cc>

            when USART3 =>
               case In_Setup.Data_Bits is
                  when BITS_5 => null; -- Add null;
                  when BITS_6 =>
                     Reg_USART3.UCSRC.UCSZ0 := TRUE;
    1cca:	80 e3       	ldi	r24, 0x30	; 48
    1ccc:	91 e0       	ldi	r25, 0x01	; 1
    1cce:	fc 01       	movw	r30, r24
    1cd0:	22 81       	ldd	r18, Z+2	; 0x02
    1cd2:	22 60       	ori	r18, 0x02	; 2
    1cd4:	fc 01       	movw	r30, r24
    1cd6:	22 83       	std	Z+2, r18	; 0x02
                     Reg_USART3.UCSRC.UCSZ1 := TRUE;
                  when BITS_9 =>
                     Reg_USART3.UCSRC.UCSZ0 := TRUE;
                     Reg_USART3.UCSRC.UCSZ1 := TRUE;
                     Reg_USART3.UCSRB.UCSZ2 := TRUE;
               end case;
    1cd8:	2c c0       	rjmp	.+88     	; 0x1d32 <avr__usart__initialize__set_data_bits.1922+0x2cc>
               case In_Setup.Data_Bits is
                  when BITS_5 => null; -- Add null;
                  when BITS_6 =>
                     Reg_USART3.UCSRC.UCSZ0 := TRUE;
                  when BITS_7 =>
                     Reg_USART3.UCSRC.UCSZ1 := TRUE;
    1cda:	80 e3       	ldi	r24, 0x30	; 48
    1cdc:	91 e0       	ldi	r25, 0x01	; 1
    1cde:	fc 01       	movw	r30, r24
    1ce0:	22 81       	ldd	r18, Z+2	; 0x02
    1ce2:	24 60       	ori	r18, 0x04	; 4
    1ce4:	fc 01       	movw	r30, r24
    1ce6:	22 83       	std	Z+2, r18	; 0x02
                     Reg_USART3.UCSRC.UCSZ1 := TRUE;
                  when BITS_9 =>
                     Reg_USART3.UCSRC.UCSZ0 := TRUE;
                     Reg_USART3.UCSRC.UCSZ1 := TRUE;
                     Reg_USART3.UCSRB.UCSZ2 := TRUE;
               end case;
    1ce8:	24 c0       	rjmp	.+72     	; 0x1d32 <avr__usart__initialize__set_data_bits.1922+0x2cc>
                  when BITS_6 =>
                     Reg_USART3.UCSRC.UCSZ0 := TRUE;
                  when BITS_7 =>
                     Reg_USART3.UCSRC.UCSZ1 := TRUE;
                  when BITS_8 =>
                     Reg_USART3.UCSRC.UCSZ0 := TRUE;
    1cea:	80 e3       	ldi	r24, 0x30	; 48
    1cec:	91 e0       	ldi	r25, 0x01	; 1
    1cee:	fc 01       	movw	r30, r24
    1cf0:	22 81       	ldd	r18, Z+2	; 0x02
    1cf2:	22 60       	ori	r18, 0x02	; 2
    1cf4:	fc 01       	movw	r30, r24
    1cf6:	22 83       	std	Z+2, r18	; 0x02
                     Reg_USART3.UCSRC.UCSZ1 := TRUE;
    1cf8:	80 e3       	ldi	r24, 0x30	; 48
    1cfa:	91 e0       	ldi	r25, 0x01	; 1
    1cfc:	fc 01       	movw	r30, r24
    1cfe:	22 81       	ldd	r18, Z+2	; 0x02
    1d00:	24 60       	ori	r18, 0x04	; 4
    1d02:	fc 01       	movw	r30, r24
    1d04:	22 83       	std	Z+2, r18	; 0x02
                  when BITS_9 =>
                     Reg_USART3.UCSRC.UCSZ0 := TRUE;
                     Reg_USART3.UCSRC.UCSZ1 := TRUE;
                     Reg_USART3.UCSRB.UCSZ2 := TRUE;
               end case;
    1d06:	15 c0       	rjmp	.+42     	; 0x1d32 <avr__usart__initialize__set_data_bits.1922+0x2cc>
                     Reg_USART3.UCSRC.UCSZ1 := TRUE;
                  when BITS_8 =>
                     Reg_USART3.UCSRC.UCSZ0 := TRUE;
                     Reg_USART3.UCSRC.UCSZ1 := TRUE;
                  when BITS_9 =>
                     Reg_USART3.UCSRC.UCSZ0 := TRUE;
    1d08:	80 e3       	ldi	r24, 0x30	; 48
    1d0a:	91 e0       	ldi	r25, 0x01	; 1
    1d0c:	fc 01       	movw	r30, r24
    1d0e:	22 81       	ldd	r18, Z+2	; 0x02
    1d10:	22 60       	ori	r18, 0x02	; 2
    1d12:	fc 01       	movw	r30, r24
    1d14:	22 83       	std	Z+2, r18	; 0x02
                     Reg_USART3.UCSRC.UCSZ1 := TRUE;
    1d16:	80 e3       	ldi	r24, 0x30	; 48
    1d18:	91 e0       	ldi	r25, 0x01	; 1
    1d1a:	fc 01       	movw	r30, r24
    1d1c:	22 81       	ldd	r18, Z+2	; 0x02
    1d1e:	24 60       	ori	r18, 0x04	; 4
    1d20:	fc 01       	movw	r30, r24
    1d22:	22 83       	std	Z+2, r18	; 0x02
                     Reg_USART3.UCSRB.UCSZ2 := TRUE;
    1d24:	80 e3       	ldi	r24, 0x30	; 48
    1d26:	91 e0       	ldi	r25, 0x01	; 1
    1d28:	fc 01       	movw	r30, r24
    1d2a:	21 81       	ldd	r18, Z+1	; 0x01
    1d2c:	24 60       	ori	r18, 0x04	; 4
    1d2e:	fc 01       	movw	r30, r24
    1d30:	21 83       	std	Z+1, r18	; 0x01
               end case;
    1d32:	00 00       	nop
#end if;
         end case;
    1d34:	00 00       	nop

      exception
         when others => null;
    1d36:	01 c0       	rjmp	.+2      	; 0x1d3a <avr__usart__initialize__set_data_bits.1922+0x2d4>
    1d38:	00 00       	nop
      end Set_Data_Bits;
    1d3a:	00 00       	nop
    1d3c:	0f 90       	pop	r0
    1d3e:	0f 90       	pop	r0
    1d40:	cf 91       	pop	r28
    1d42:	df 91       	pop	r29
    1d44:	1f 91       	pop	r17
    1d46:	0f 91       	pop	r16
    1d48:	3f 90       	pop	r3
    1d4a:	2f 90       	pop	r2
    1d4c:	08 95       	ret

00001d4e <avr__usart__initialize__set_parity.1924>:

      procedure Set_Parity is
    1d4e:	2f 92       	push	r2
    1d50:	3f 92       	push	r3
    1d52:	df 93       	push	r29
    1d54:	cf 93       	push	r28
    1d56:	0f 92       	push	r0
    1d58:	0f 92       	push	r0
    1d5a:	cd b7       	in	r28, 0x3d	; 61
    1d5c:	de b7       	in	r29, 0x3e	; 62
    1d5e:	c1 01       	movw	r24, r2
    1d60:	3a 82       	std	Y+2, r3	; 0x02
    1d62:	29 82       	std	Y+1, r2	; 0x01
      begin
         case In_Port is
    1d64:	fc 01       	movw	r30, r24
    1d66:	24 81       	ldd	r18, Z+4	; 0x04
    1d68:	22 2f       	mov	r18, r18
    1d6a:	30 e0       	ldi	r19, 0x00	; 0
    1d6c:	40 e0       	ldi	r20, 0x00	; 0
    1d6e:	50 e0       	ldi	r21, 0x00	; 0
    1d70:	24 30       	cpi	r18, 0x04	; 4
    1d72:	31 05       	cpc	r19, r1
    1d74:	41 05       	cpc	r20, r1
    1d76:	51 05       	cpc	r21, r1
    1d78:	08 f0       	brcs	.+2      	; 0x1d7c <avr__usart__initialize__set_parity.1924+0x2e>
    1d7a:	74 c1       	rjmp	.+744    	; 0x2064 <avr__usart__initialize__set_parity.1924+0x316>
    1d7c:	fc 01       	movw	r30, r24
    1d7e:	24 81       	ldd	r18, Z+4	; 0x04
    1d80:	21 30       	cpi	r18, 0x01	; 1
    1d82:	09 f4       	brne	.+2      	; 0x1d86 <avr__usart__initialize__set_parity.1924+0x38>
    1d84:	60 c0       	rjmp	.+192    	; 0x1e46 <avr__usart__initialize__set_parity.1924+0xf8>
    1d86:	21 30       	cpi	r18, 0x01	; 1
    1d88:	20 f0       	brcs	.+8      	; 0x1d92 <avr__usart__initialize__set_parity.1924+0x44>
    1d8a:	22 30       	cpi	r18, 0x02	; 2
    1d8c:	09 f4       	brne	.+2      	; 0x1d90 <avr__usart__initialize__set_parity.1924+0x42>
    1d8e:	b5 c0       	rjmp	.+362    	; 0x1efa <avr__usart__initialize__set_parity.1924+0x1ac>
    1d90:	0e c1       	rjmp	.+540    	; 0x1fae <avr__usart__initialize__set_parity.1924+0x260>
            when USART0 =>
               case In_Setup.Parity is
    1d92:	fc 01       	movw	r30, r24
    1d94:	22 81       	ldd	r18, Z+2	; 0x02
    1d96:	33 81       	ldd	r19, Z+3	; 0x03
    1d98:	f9 01       	movw	r30, r18
    1d9a:	27 81       	ldd	r18, Z+7	; 0x07
    1d9c:	22 2f       	mov	r18, r18
    1d9e:	30 e0       	ldi	r19, 0x00	; 0
    1da0:	40 e0       	ldi	r20, 0x00	; 0
    1da2:	50 e0       	ldi	r21, 0x00	; 0
    1da4:	23 30       	cpi	r18, 0x03	; 3
    1da6:	31 05       	cpc	r19, r1
    1da8:	41 05       	cpc	r20, r1
    1daa:	51 05       	cpc	r21, r1
    1dac:	08 f0       	brcs	.+2      	; 0x1db0 <avr__usart__initialize__set_parity.1924+0x62>
    1dae:	5a c1       	rjmp	.+692    	; 0x2064 <avr__usart__initialize__set_parity.1924+0x316>
    1db0:	fc 01       	movw	r30, r24
    1db2:	82 81       	ldd	r24, Z+2	; 0x02
    1db4:	93 81       	ldd	r25, Z+3	; 0x03
    1db6:	fc 01       	movw	r30, r24
    1db8:	87 81       	ldd	r24, Z+7	; 0x07
    1dba:	88 23       	and	r24, r24
    1dbc:	19 f0       	breq	.+6      	; 0x1dc4 <avr__usart__initialize__set_parity.1924+0x76>
    1dbe:	81 30       	cpi	r24, 0x01	; 1
    1dc0:	19 f0       	breq	.+6      	; 0x1dc8 <avr__usart__initialize__set_parity.1924+0x7a>
    1dc2:	17 c0       	rjmp	.+46     	; 0x1df2 <avr__usart__initialize__set_parity.1924+0xa4>
                  when NONE => null;
    1dc4:	00 00       	nop
                  when EVEN =>
                     Reg_USART0.UCSRC.UPM (1) := TRUE;
                  when ODD =>
                     Reg_USART0.UCSRC.UPM (0) := TRUE;
                     Reg_USART0.UCSRC.UPM (1) := TRUE;
               end case;
    1dc6:	3d c0       	rjmp	.+122    	; 0x1e42 <avr__usart__initialize__set_parity.1924+0xf4>
         case In_Port is
            when USART0 =>
               case In_Setup.Parity is
                  when NONE => null;
                  when EVEN =>
                     Reg_USART0.UCSRC.UPM (1) := TRUE;
    1dc8:	80 ec       	ldi	r24, 0xC0	; 192
    1dca:	90 e0       	ldi	r25, 0x00	; 0
    1dcc:	20 ec       	ldi	r18, 0xC0	; 192
    1dce:	30 e0       	ldi	r19, 0x00	; 0
    1dd0:	f9 01       	movw	r30, r18
    1dd2:	22 81       	ldd	r18, Z+2	; 0x02
    1dd4:	22 95       	swap	r18
    1dd6:	2f 70       	andi	r18, 0x0F	; 15
    1dd8:	23 70       	andi	r18, 0x03	; 3
    1dda:	22 60       	ori	r18, 0x02	; 2
    1ddc:	23 70       	andi	r18, 0x03	; 3
    1dde:	23 70       	andi	r18, 0x03	; 3
    1de0:	22 95       	swap	r18
    1de2:	20 7f       	andi	r18, 0xF0	; 240
    1de4:	fc 01       	movw	r30, r24
    1de6:	32 81       	ldd	r19, Z+2	; 0x02
    1de8:	3f 7c       	andi	r19, 0xCF	; 207
    1dea:	23 2b       	or	r18, r19
    1dec:	fc 01       	movw	r30, r24
    1dee:	22 83       	std	Z+2, r18	; 0x02
                  when ODD =>
                     Reg_USART0.UCSRC.UPM (0) := TRUE;
                     Reg_USART0.UCSRC.UPM (1) := TRUE;
               end case;
    1df0:	28 c0       	rjmp	.+80     	; 0x1e42 <avr__usart__initialize__set_parity.1924+0xf4>
               case In_Setup.Parity is
                  when NONE => null;
                  when EVEN =>
                     Reg_USART0.UCSRC.UPM (1) := TRUE;
                  when ODD =>
                     Reg_USART0.UCSRC.UPM (0) := TRUE;
    1df2:	80 ec       	ldi	r24, 0xC0	; 192
    1df4:	90 e0       	ldi	r25, 0x00	; 0
    1df6:	20 ec       	ldi	r18, 0xC0	; 192
    1df8:	30 e0       	ldi	r19, 0x00	; 0
    1dfa:	f9 01       	movw	r30, r18
    1dfc:	22 81       	ldd	r18, Z+2	; 0x02
    1dfe:	22 95       	swap	r18
    1e00:	2f 70       	andi	r18, 0x0F	; 15
    1e02:	23 70       	andi	r18, 0x03	; 3
    1e04:	21 60       	ori	r18, 0x01	; 1
    1e06:	23 70       	andi	r18, 0x03	; 3
    1e08:	23 70       	andi	r18, 0x03	; 3
    1e0a:	22 95       	swap	r18
    1e0c:	20 7f       	andi	r18, 0xF0	; 240
    1e0e:	fc 01       	movw	r30, r24
    1e10:	32 81       	ldd	r19, Z+2	; 0x02
    1e12:	3f 7c       	andi	r19, 0xCF	; 207
    1e14:	23 2b       	or	r18, r19
    1e16:	fc 01       	movw	r30, r24
    1e18:	22 83       	std	Z+2, r18	; 0x02
                     Reg_USART0.UCSRC.UPM (1) := TRUE;
    1e1a:	80 ec       	ldi	r24, 0xC0	; 192
    1e1c:	90 e0       	ldi	r25, 0x00	; 0
    1e1e:	20 ec       	ldi	r18, 0xC0	; 192
    1e20:	30 e0       	ldi	r19, 0x00	; 0
    1e22:	f9 01       	movw	r30, r18
    1e24:	22 81       	ldd	r18, Z+2	; 0x02
    1e26:	22 95       	swap	r18
    1e28:	2f 70       	andi	r18, 0x0F	; 15
    1e2a:	23 70       	andi	r18, 0x03	; 3
    1e2c:	22 60       	ori	r18, 0x02	; 2
    1e2e:	23 70       	andi	r18, 0x03	; 3
    1e30:	23 70       	andi	r18, 0x03	; 3
    1e32:	22 95       	swap	r18
    1e34:	20 7f       	andi	r18, 0xF0	; 240
    1e36:	fc 01       	movw	r30, r24
    1e38:	32 81       	ldd	r19, Z+2	; 0x02
    1e3a:	3f 7c       	andi	r19, 0xCF	; 207
    1e3c:	23 2b       	or	r18, r19
    1e3e:	fc 01       	movw	r30, r24
    1e40:	22 83       	std	Z+2, r18	; 0x02
               end case;
    1e42:	00 00       	nop
                  when ODD =>
                     Reg_USART3.UCSRC.UPM (0) := TRUE;
                     Reg_USART3.UCSRC.UPM (1) := TRUE;
               end case;
#end if;
         end case;
    1e44:	0d c1       	rjmp	.+538    	; 0x2060 <avr__usart__initialize__set_parity.1924+0x312>
                     Reg_USART0.UCSRC.UPM (1) := TRUE;
               end case;

#if MCU="ATMEGA2560" then
            when USART1 =>
               case In_Setup.Parity is
    1e46:	fc 01       	movw	r30, r24
    1e48:	22 81       	ldd	r18, Z+2	; 0x02
    1e4a:	33 81       	ldd	r19, Z+3	; 0x03
    1e4c:	f9 01       	movw	r30, r18
    1e4e:	27 81       	ldd	r18, Z+7	; 0x07
    1e50:	22 2f       	mov	r18, r18
    1e52:	30 e0       	ldi	r19, 0x00	; 0
    1e54:	40 e0       	ldi	r20, 0x00	; 0
    1e56:	50 e0       	ldi	r21, 0x00	; 0
    1e58:	23 30       	cpi	r18, 0x03	; 3
    1e5a:	31 05       	cpc	r19, r1
    1e5c:	41 05       	cpc	r20, r1
    1e5e:	51 05       	cpc	r21, r1
    1e60:	08 f0       	brcs	.+2      	; 0x1e64 <avr__usart__initialize__set_parity.1924+0x116>
    1e62:	00 c1       	rjmp	.+512    	; 0x2064 <avr__usart__initialize__set_parity.1924+0x316>
    1e64:	fc 01       	movw	r30, r24
    1e66:	82 81       	ldd	r24, Z+2	; 0x02
    1e68:	93 81       	ldd	r25, Z+3	; 0x03
    1e6a:	fc 01       	movw	r30, r24
    1e6c:	87 81       	ldd	r24, Z+7	; 0x07
    1e6e:	88 23       	and	r24, r24
    1e70:	19 f0       	breq	.+6      	; 0x1e78 <avr__usart__initialize__set_parity.1924+0x12a>
    1e72:	81 30       	cpi	r24, 0x01	; 1
    1e74:	19 f0       	breq	.+6      	; 0x1e7c <avr__usart__initialize__set_parity.1924+0x12e>
    1e76:	17 c0       	rjmp	.+46     	; 0x1ea6 <avr__usart__initialize__set_parity.1924+0x158>
                  when NONE => null;
    1e78:	00 00       	nop
                  when EVEN =>
                     Reg_USART1.UCSRC.UPM (1) := TRUE;
                  when ODD =>
                     Reg_USART1.UCSRC.UPM (0) := TRUE;
                     Reg_USART1.UCSRC.UPM (1) := TRUE;
               end case;
    1e7a:	3d c0       	rjmp	.+122    	; 0x1ef6 <avr__usart__initialize__set_parity.1924+0x1a8>
#if MCU="ATMEGA2560" then
            when USART1 =>
               case In_Setup.Parity is
                  when NONE => null;
                  when EVEN =>
                     Reg_USART1.UCSRC.UPM (1) := TRUE;
    1e7c:	88 ec       	ldi	r24, 0xC8	; 200
    1e7e:	90 e0       	ldi	r25, 0x00	; 0
    1e80:	28 ec       	ldi	r18, 0xC8	; 200
    1e82:	30 e0       	ldi	r19, 0x00	; 0
    1e84:	f9 01       	movw	r30, r18
    1e86:	22 81       	ldd	r18, Z+2	; 0x02
    1e88:	22 95       	swap	r18
    1e8a:	2f 70       	andi	r18, 0x0F	; 15
    1e8c:	23 70       	andi	r18, 0x03	; 3
    1e8e:	22 60       	ori	r18, 0x02	; 2
    1e90:	23 70       	andi	r18, 0x03	; 3
    1e92:	23 70       	andi	r18, 0x03	; 3
    1e94:	22 95       	swap	r18
    1e96:	20 7f       	andi	r18, 0xF0	; 240
    1e98:	fc 01       	movw	r30, r24
    1e9a:	32 81       	ldd	r19, Z+2	; 0x02
    1e9c:	3f 7c       	andi	r19, 0xCF	; 207
    1e9e:	23 2b       	or	r18, r19
    1ea0:	fc 01       	movw	r30, r24
    1ea2:	22 83       	std	Z+2, r18	; 0x02
                  when ODD =>
                     Reg_USART1.UCSRC.UPM (0) := TRUE;
                     Reg_USART1.UCSRC.UPM (1) := TRUE;
               end case;
    1ea4:	28 c0       	rjmp	.+80     	; 0x1ef6 <avr__usart__initialize__set_parity.1924+0x1a8>
               case In_Setup.Parity is
                  when NONE => null;
                  when EVEN =>
                     Reg_USART1.UCSRC.UPM (1) := TRUE;
                  when ODD =>
                     Reg_USART1.UCSRC.UPM (0) := TRUE;
    1ea6:	88 ec       	ldi	r24, 0xC8	; 200
    1ea8:	90 e0       	ldi	r25, 0x00	; 0
    1eaa:	28 ec       	ldi	r18, 0xC8	; 200
    1eac:	30 e0       	ldi	r19, 0x00	; 0
    1eae:	f9 01       	movw	r30, r18
    1eb0:	22 81       	ldd	r18, Z+2	; 0x02
    1eb2:	22 95       	swap	r18
    1eb4:	2f 70       	andi	r18, 0x0F	; 15
    1eb6:	23 70       	andi	r18, 0x03	; 3
    1eb8:	21 60       	ori	r18, 0x01	; 1
    1eba:	23 70       	andi	r18, 0x03	; 3
    1ebc:	23 70       	andi	r18, 0x03	; 3
    1ebe:	22 95       	swap	r18
    1ec0:	20 7f       	andi	r18, 0xF0	; 240
    1ec2:	fc 01       	movw	r30, r24
    1ec4:	32 81       	ldd	r19, Z+2	; 0x02
    1ec6:	3f 7c       	andi	r19, 0xCF	; 207
    1ec8:	23 2b       	or	r18, r19
    1eca:	fc 01       	movw	r30, r24
    1ecc:	22 83       	std	Z+2, r18	; 0x02
                     Reg_USART1.UCSRC.UPM (1) := TRUE;
    1ece:	88 ec       	ldi	r24, 0xC8	; 200
    1ed0:	90 e0       	ldi	r25, 0x00	; 0
    1ed2:	28 ec       	ldi	r18, 0xC8	; 200
    1ed4:	30 e0       	ldi	r19, 0x00	; 0
    1ed6:	f9 01       	movw	r30, r18
    1ed8:	22 81       	ldd	r18, Z+2	; 0x02
    1eda:	22 95       	swap	r18
    1edc:	2f 70       	andi	r18, 0x0F	; 15
    1ede:	23 70       	andi	r18, 0x03	; 3
    1ee0:	22 60       	ori	r18, 0x02	; 2
    1ee2:	23 70       	andi	r18, 0x03	; 3
    1ee4:	23 70       	andi	r18, 0x03	; 3
    1ee6:	22 95       	swap	r18
    1ee8:	20 7f       	andi	r18, 0xF0	; 240
    1eea:	fc 01       	movw	r30, r24
    1eec:	32 81       	ldd	r19, Z+2	; 0x02
    1eee:	3f 7c       	andi	r19, 0xCF	; 207
    1ef0:	23 2b       	or	r18, r19
    1ef2:	fc 01       	movw	r30, r24
    1ef4:	22 83       	std	Z+2, r18	; 0x02
               end case;
    1ef6:	00 00       	nop
                  when ODD =>
                     Reg_USART3.UCSRC.UPM (0) := TRUE;
                     Reg_USART3.UCSRC.UPM (1) := TRUE;
               end case;
#end if;
         end case;
    1ef8:	b3 c0       	rjmp	.+358    	; 0x2060 <avr__usart__initialize__set_parity.1924+0x312>
                     Reg_USART1.UCSRC.UPM (0) := TRUE;
                     Reg_USART1.UCSRC.UPM (1) := TRUE;
               end case;

            when USART2 =>
               case In_Setup.Parity is
    1efa:	fc 01       	movw	r30, r24
    1efc:	22 81       	ldd	r18, Z+2	; 0x02
    1efe:	33 81       	ldd	r19, Z+3	; 0x03
    1f00:	f9 01       	movw	r30, r18
    1f02:	27 81       	ldd	r18, Z+7	; 0x07
    1f04:	22 2f       	mov	r18, r18
    1f06:	30 e0       	ldi	r19, 0x00	; 0
    1f08:	40 e0       	ldi	r20, 0x00	; 0
    1f0a:	50 e0       	ldi	r21, 0x00	; 0
    1f0c:	23 30       	cpi	r18, 0x03	; 3
    1f0e:	31 05       	cpc	r19, r1
    1f10:	41 05       	cpc	r20, r1
    1f12:	51 05       	cpc	r21, r1
    1f14:	08 f0       	brcs	.+2      	; 0x1f18 <avr__usart__initialize__set_parity.1924+0x1ca>
    1f16:	a6 c0       	rjmp	.+332    	; 0x2064 <avr__usart__initialize__set_parity.1924+0x316>
    1f18:	fc 01       	movw	r30, r24
    1f1a:	82 81       	ldd	r24, Z+2	; 0x02
    1f1c:	93 81       	ldd	r25, Z+3	; 0x03
    1f1e:	fc 01       	movw	r30, r24
    1f20:	87 81       	ldd	r24, Z+7	; 0x07
    1f22:	88 23       	and	r24, r24
    1f24:	19 f0       	breq	.+6      	; 0x1f2c <avr__usart__initialize__set_parity.1924+0x1de>
    1f26:	81 30       	cpi	r24, 0x01	; 1
    1f28:	19 f0       	breq	.+6      	; 0x1f30 <avr__usart__initialize__set_parity.1924+0x1e2>
    1f2a:	17 c0       	rjmp	.+46     	; 0x1f5a <avr__usart__initialize__set_parity.1924+0x20c>
                  when NONE => null;
    1f2c:	00 00       	nop
                  when EVEN =>
                     Reg_USART2.UCSRC.UPM (1) := TRUE;
                  when ODD =>
                     Reg_USART2.UCSRC.UPM (0) := TRUE;
                     Reg_USART2.UCSRC.UPM (1) := TRUE;
               end case;
    1f2e:	3d c0       	rjmp	.+122    	; 0x1faa <avr__usart__initialize__set_parity.1924+0x25c>

            when USART2 =>
               case In_Setup.Parity is
                  when NONE => null;
                  when EVEN =>
                     Reg_USART2.UCSRC.UPM (1) := TRUE;
    1f30:	80 ed       	ldi	r24, 0xD0	; 208
    1f32:	90 e0       	ldi	r25, 0x00	; 0
    1f34:	20 ed       	ldi	r18, 0xD0	; 208
    1f36:	30 e0       	ldi	r19, 0x00	; 0
    1f38:	f9 01       	movw	r30, r18
    1f3a:	22 81       	ldd	r18, Z+2	; 0x02
    1f3c:	22 95       	swap	r18
    1f3e:	2f 70       	andi	r18, 0x0F	; 15
    1f40:	23 70       	andi	r18, 0x03	; 3
    1f42:	22 60       	ori	r18, 0x02	; 2
    1f44:	23 70       	andi	r18, 0x03	; 3
    1f46:	23 70       	andi	r18, 0x03	; 3
    1f48:	22 95       	swap	r18
    1f4a:	20 7f       	andi	r18, 0xF0	; 240
    1f4c:	fc 01       	movw	r30, r24
    1f4e:	32 81       	ldd	r19, Z+2	; 0x02
    1f50:	3f 7c       	andi	r19, 0xCF	; 207
    1f52:	23 2b       	or	r18, r19
    1f54:	fc 01       	movw	r30, r24
    1f56:	22 83       	std	Z+2, r18	; 0x02
                  when ODD =>
                     Reg_USART2.UCSRC.UPM (0) := TRUE;
                     Reg_USART2.UCSRC.UPM (1) := TRUE;
               end case;
    1f58:	28 c0       	rjmp	.+80     	; 0x1faa <avr__usart__initialize__set_parity.1924+0x25c>
               case In_Setup.Parity is
                  when NONE => null;
                  when EVEN =>
                     Reg_USART2.UCSRC.UPM (1) := TRUE;
                  when ODD =>
                     Reg_USART2.UCSRC.UPM (0) := TRUE;
    1f5a:	80 ed       	ldi	r24, 0xD0	; 208
    1f5c:	90 e0       	ldi	r25, 0x00	; 0
    1f5e:	20 ed       	ldi	r18, 0xD0	; 208
    1f60:	30 e0       	ldi	r19, 0x00	; 0
    1f62:	f9 01       	movw	r30, r18
    1f64:	22 81       	ldd	r18, Z+2	; 0x02
    1f66:	22 95       	swap	r18
    1f68:	2f 70       	andi	r18, 0x0F	; 15
    1f6a:	23 70       	andi	r18, 0x03	; 3
    1f6c:	21 60       	ori	r18, 0x01	; 1
    1f6e:	23 70       	andi	r18, 0x03	; 3
    1f70:	23 70       	andi	r18, 0x03	; 3
    1f72:	22 95       	swap	r18
    1f74:	20 7f       	andi	r18, 0xF0	; 240
    1f76:	fc 01       	movw	r30, r24
    1f78:	32 81       	ldd	r19, Z+2	; 0x02
    1f7a:	3f 7c       	andi	r19, 0xCF	; 207
    1f7c:	23 2b       	or	r18, r19
    1f7e:	fc 01       	movw	r30, r24
    1f80:	22 83       	std	Z+2, r18	; 0x02
                     Reg_USART2.UCSRC.UPM (1) := TRUE;
    1f82:	80 ed       	ldi	r24, 0xD0	; 208
    1f84:	90 e0       	ldi	r25, 0x00	; 0
    1f86:	20 ed       	ldi	r18, 0xD0	; 208
    1f88:	30 e0       	ldi	r19, 0x00	; 0
    1f8a:	f9 01       	movw	r30, r18
    1f8c:	22 81       	ldd	r18, Z+2	; 0x02
    1f8e:	22 95       	swap	r18
    1f90:	2f 70       	andi	r18, 0x0F	; 15
    1f92:	23 70       	andi	r18, 0x03	; 3
    1f94:	22 60       	ori	r18, 0x02	; 2
    1f96:	23 70       	andi	r18, 0x03	; 3
    1f98:	23 70       	andi	r18, 0x03	; 3
    1f9a:	22 95       	swap	r18
    1f9c:	20 7f       	andi	r18, 0xF0	; 240
    1f9e:	fc 01       	movw	r30, r24
    1fa0:	32 81       	ldd	r19, Z+2	; 0x02
    1fa2:	3f 7c       	andi	r19, 0xCF	; 207
    1fa4:	23 2b       	or	r18, r19
    1fa6:	fc 01       	movw	r30, r24
    1fa8:	22 83       	std	Z+2, r18	; 0x02
               end case;
    1faa:	00 00       	nop
                  when ODD =>
                     Reg_USART3.UCSRC.UPM (0) := TRUE;
                     Reg_USART3.UCSRC.UPM (1) := TRUE;
               end case;
#end if;
         end case;
    1fac:	59 c0       	rjmp	.+178    	; 0x2060 <avr__usart__initialize__set_parity.1924+0x312>
                     Reg_USART2.UCSRC.UPM (0) := TRUE;
                     Reg_USART2.UCSRC.UPM (1) := TRUE;
               end case;

            when USART3 =>
               case In_Setup.Parity is
    1fae:	fc 01       	movw	r30, r24
    1fb0:	22 81       	ldd	r18, Z+2	; 0x02
    1fb2:	33 81       	ldd	r19, Z+3	; 0x03
    1fb4:	f9 01       	movw	r30, r18
    1fb6:	27 81       	ldd	r18, Z+7	; 0x07
    1fb8:	22 2f       	mov	r18, r18
    1fba:	30 e0       	ldi	r19, 0x00	; 0
    1fbc:	40 e0       	ldi	r20, 0x00	; 0
    1fbe:	50 e0       	ldi	r21, 0x00	; 0
    1fc0:	23 30       	cpi	r18, 0x03	; 3
    1fc2:	31 05       	cpc	r19, r1
    1fc4:	41 05       	cpc	r20, r1
    1fc6:	51 05       	cpc	r21, r1
    1fc8:	08 f0       	brcs	.+2      	; 0x1fcc <avr__usart__initialize__set_parity.1924+0x27e>
    1fca:	4c c0       	rjmp	.+152    	; 0x2064 <avr__usart__initialize__set_parity.1924+0x316>
    1fcc:	fc 01       	movw	r30, r24
    1fce:	82 81       	ldd	r24, Z+2	; 0x02
    1fd0:	93 81       	ldd	r25, Z+3	; 0x03
    1fd2:	fc 01       	movw	r30, r24
    1fd4:	87 81       	ldd	r24, Z+7	; 0x07
    1fd6:	88 23       	and	r24, r24
    1fd8:	19 f0       	breq	.+6      	; 0x1fe0 <avr__usart__initialize__set_parity.1924+0x292>
    1fda:	81 30       	cpi	r24, 0x01	; 1
    1fdc:	19 f0       	breq	.+6      	; 0x1fe4 <avr__usart__initialize__set_parity.1924+0x296>
    1fde:	17 c0       	rjmp	.+46     	; 0x200e <avr__usart__initialize__set_parity.1924+0x2c0>
                  when NONE => null;
    1fe0:	00 00       	nop
                  when EVEN =>
                     Reg_USART3.UCSRC.UPM (1) := TRUE;
                  when ODD =>
                     Reg_USART3.UCSRC.UPM (0) := TRUE;
                     Reg_USART3.UCSRC.UPM (1) := TRUE;
               end case;
    1fe2:	3d c0       	rjmp	.+122    	; 0x205e <avr__usart__initialize__set_parity.1924+0x310>

            when USART3 =>
               case In_Setup.Parity is
                  when NONE => null;
                  when EVEN =>
                     Reg_USART3.UCSRC.UPM (1) := TRUE;
    1fe4:	80 e3       	ldi	r24, 0x30	; 48
    1fe6:	91 e0       	ldi	r25, 0x01	; 1
    1fe8:	20 e3       	ldi	r18, 0x30	; 48
    1fea:	31 e0       	ldi	r19, 0x01	; 1
    1fec:	f9 01       	movw	r30, r18
    1fee:	22 81       	ldd	r18, Z+2	; 0x02
    1ff0:	22 95       	swap	r18
    1ff2:	2f 70       	andi	r18, 0x0F	; 15
    1ff4:	23 70       	andi	r18, 0x03	; 3
    1ff6:	22 60       	ori	r18, 0x02	; 2
    1ff8:	23 70       	andi	r18, 0x03	; 3
    1ffa:	23 70       	andi	r18, 0x03	; 3
    1ffc:	22 95       	swap	r18
    1ffe:	20 7f       	andi	r18, 0xF0	; 240
    2000:	fc 01       	movw	r30, r24
    2002:	32 81       	ldd	r19, Z+2	; 0x02
    2004:	3f 7c       	andi	r19, 0xCF	; 207
    2006:	23 2b       	or	r18, r19
    2008:	fc 01       	movw	r30, r24
    200a:	22 83       	std	Z+2, r18	; 0x02
                  when ODD =>
                     Reg_USART3.UCSRC.UPM (0) := TRUE;
                     Reg_USART3.UCSRC.UPM (1) := TRUE;
               end case;
    200c:	28 c0       	rjmp	.+80     	; 0x205e <avr__usart__initialize__set_parity.1924+0x310>
               case In_Setup.Parity is
                  when NONE => null;
                  when EVEN =>
                     Reg_USART3.UCSRC.UPM (1) := TRUE;
                  when ODD =>
                     Reg_USART3.UCSRC.UPM (0) := TRUE;
    200e:	80 e3       	ldi	r24, 0x30	; 48
    2010:	91 e0       	ldi	r25, 0x01	; 1
    2012:	20 e3       	ldi	r18, 0x30	; 48
    2014:	31 e0       	ldi	r19, 0x01	; 1
    2016:	f9 01       	movw	r30, r18
    2018:	22 81       	ldd	r18, Z+2	; 0x02
    201a:	22 95       	swap	r18
    201c:	2f 70       	andi	r18, 0x0F	; 15
    201e:	23 70       	andi	r18, 0x03	; 3
    2020:	21 60       	ori	r18, 0x01	; 1
    2022:	23 70       	andi	r18, 0x03	; 3
    2024:	23 70       	andi	r18, 0x03	; 3
    2026:	22 95       	swap	r18
    2028:	20 7f       	andi	r18, 0xF0	; 240
    202a:	fc 01       	movw	r30, r24
    202c:	32 81       	ldd	r19, Z+2	; 0x02
    202e:	3f 7c       	andi	r19, 0xCF	; 207
    2030:	23 2b       	or	r18, r19
    2032:	fc 01       	movw	r30, r24
    2034:	22 83       	std	Z+2, r18	; 0x02
                     Reg_USART3.UCSRC.UPM (1) := TRUE;
    2036:	80 e3       	ldi	r24, 0x30	; 48
    2038:	91 e0       	ldi	r25, 0x01	; 1
    203a:	20 e3       	ldi	r18, 0x30	; 48
    203c:	31 e0       	ldi	r19, 0x01	; 1
    203e:	f9 01       	movw	r30, r18
    2040:	22 81       	ldd	r18, Z+2	; 0x02
    2042:	22 95       	swap	r18
    2044:	2f 70       	andi	r18, 0x0F	; 15
    2046:	23 70       	andi	r18, 0x03	; 3
    2048:	22 60       	ori	r18, 0x02	; 2
    204a:	23 70       	andi	r18, 0x03	; 3
    204c:	23 70       	andi	r18, 0x03	; 3
    204e:	22 95       	swap	r18
    2050:	20 7f       	andi	r18, 0xF0	; 240
    2052:	fc 01       	movw	r30, r24
    2054:	32 81       	ldd	r19, Z+2	; 0x02
    2056:	3f 7c       	andi	r19, 0xCF	; 207
    2058:	23 2b       	or	r18, r19
    205a:	fc 01       	movw	r30, r24
    205c:	22 83       	std	Z+2, r18	; 0x02
               end case;
    205e:	00 00       	nop
#end if;
         end case;
    2060:	00 00       	nop
      exception
         when others => null;
    2062:	01 c0       	rjmp	.+2      	; 0x2066 <avr__usart__initialize__set_parity.1924+0x318>
    2064:	00 00       	nop
      end Set_Parity;
    2066:	00 00       	nop
    2068:	0f 90       	pop	r0
    206a:	0f 90       	pop	r0
    206c:	cf 91       	pop	r28
    206e:	df 91       	pop	r29
    2070:	3f 90       	pop	r3
    2072:	2f 90       	pop	r2
    2074:	08 95       	ret

00002076 <avr__usart__initialize__set_stop_bits.1926>:

      procedure Set_Stop_Bits is
    2076:	2f 92       	push	r2
    2078:	3f 92       	push	r3
    207a:	df 93       	push	r29
    207c:	cf 93       	push	r28
    207e:	0f 92       	push	r0
    2080:	0f 92       	push	r0
    2082:	cd b7       	in	r28, 0x3d	; 61
    2084:	de b7       	in	r29, 0x3e	; 62
    2086:	c1 01       	movw	r24, r2
    2088:	3a 82       	std	Y+2, r3	; 0x02
    208a:	29 82       	std	Y+1, r2	; 0x01
      begin
         case In_Port is
    208c:	fc 01       	movw	r30, r24
    208e:	24 81       	ldd	r18, Z+4	; 0x04
    2090:	22 2f       	mov	r18, r18
    2092:	30 e0       	ldi	r19, 0x00	; 0
    2094:	40 e0       	ldi	r20, 0x00	; 0
    2096:	50 e0       	ldi	r21, 0x00	; 0
    2098:	24 30       	cpi	r18, 0x04	; 4
    209a:	31 05       	cpc	r19, r1
    209c:	41 05       	cpc	r20, r1
    209e:	51 05       	cpc	r21, r1
    20a0:	08 f0       	brcs	.+2      	; 0x20a4 <avr__usart__initialize__set_stop_bits.1926+0x2e>
    20a2:	4e c0       	rjmp	.+156    	; 0x2140 <avr__usart__initialize__set_stop_bits.1926+0xca>
    20a4:	fc 01       	movw	r30, r24
    20a6:	24 81       	ldd	r18, Z+4	; 0x04
    20a8:	21 30       	cpi	r18, 0x01	; 1
    20aa:	b1 f0       	breq	.+44     	; 0x20d8 <avr__usart__initialize__set_stop_bits.1926+0x62>
    20ac:	21 30       	cpi	r18, 0x01	; 1
    20ae:	18 f0       	brcs	.+6      	; 0x20b6 <avr__usart__initialize__set_stop_bits.1926+0x40>
    20b0:	22 30       	cpi	r18, 0x02	; 2
    20b2:	19 f1       	breq	.+70     	; 0x20fa <avr__usart__initialize__set_stop_bits.1926+0x84>
    20b4:	33 c0       	rjmp	.+102    	; 0x211c <avr__usart__initialize__set_stop_bits.1926+0xa6>
            when USART0 =>
               if In_Setup.Stop_Bits = 2 then
    20b6:	fc 01       	movw	r30, r24
    20b8:	82 81       	ldd	r24, Z+2	; 0x02
    20ba:	93 81       	ldd	r25, Z+3	; 0x03
    20bc:	fc 01       	movw	r30, r24
    20be:	80 85       	ldd	r24, Z+8	; 0x08
    20c0:	91 85       	ldd	r25, Z+9	; 0x09
    20c2:	82 30       	cpi	r24, 0x02	; 2
    20c4:	91 05       	cpc	r25, r1
    20c6:	d1 f5       	brne	.+116    	; 0x213c <avr__usart__initialize__set_stop_bits.1926+0xc6>
                  Reg_USART0.UCSRC.USBS := TRUE;
    20c8:	80 ec       	ldi	r24, 0xC0	; 192
    20ca:	90 e0       	ldi	r25, 0x00	; 0
    20cc:	fc 01       	movw	r30, r24
    20ce:	22 81       	ldd	r18, Z+2	; 0x02
    20d0:	28 60       	ori	r18, 0x08	; 8
    20d2:	fc 01       	movw	r30, r24
    20d4:	22 83       	std	Z+2, r18	; 0x02
            when USART3 =>
               if In_Setup.Stop_Bits = 2 then
                  Reg_USART3.UCSRC.USBS := TRUE;
               end if;
#end if;
         end case;
    20d6:	32 c0       	rjmp	.+100    	; 0x213c <avr__usart__initialize__set_stop_bits.1926+0xc6>
                  Reg_USART0.UCSRC.USBS := TRUE;
               end if;

#if MCU="ATMEGA2560" then
            when USART1 =>
               if In_Setup.Stop_Bits = 2 then
    20d8:	fc 01       	movw	r30, r24
    20da:	82 81       	ldd	r24, Z+2	; 0x02
    20dc:	93 81       	ldd	r25, Z+3	; 0x03
    20de:	fc 01       	movw	r30, r24
    20e0:	80 85       	ldd	r24, Z+8	; 0x08
    20e2:	91 85       	ldd	r25, Z+9	; 0x09
    20e4:	82 30       	cpi	r24, 0x02	; 2
    20e6:	91 05       	cpc	r25, r1
    20e8:	49 f5       	brne	.+82     	; 0x213c <avr__usart__initialize__set_stop_bits.1926+0xc6>
                  Reg_USART1.UCSRC.USBS := TRUE;
    20ea:	88 ec       	ldi	r24, 0xC8	; 200
    20ec:	90 e0       	ldi	r25, 0x00	; 0
    20ee:	fc 01       	movw	r30, r24
    20f0:	22 81       	ldd	r18, Z+2	; 0x02
    20f2:	28 60       	ori	r18, 0x08	; 8
    20f4:	fc 01       	movw	r30, r24
    20f6:	22 83       	std	Z+2, r18	; 0x02
            when USART3 =>
               if In_Setup.Stop_Bits = 2 then
                  Reg_USART3.UCSRC.USBS := TRUE;
               end if;
#end if;
         end case;
    20f8:	21 c0       	rjmp	.+66     	; 0x213c <avr__usart__initialize__set_stop_bits.1926+0xc6>
               if In_Setup.Stop_Bits = 2 then
                  Reg_USART1.UCSRC.USBS := TRUE;
               end if;

            when USART2 =>
               if In_Setup.Stop_Bits = 2 then
    20fa:	fc 01       	movw	r30, r24
    20fc:	82 81       	ldd	r24, Z+2	; 0x02
    20fe:	93 81       	ldd	r25, Z+3	; 0x03
    2100:	fc 01       	movw	r30, r24
    2102:	80 85       	ldd	r24, Z+8	; 0x08
    2104:	91 85       	ldd	r25, Z+9	; 0x09
    2106:	82 30       	cpi	r24, 0x02	; 2
    2108:	91 05       	cpc	r25, r1
    210a:	c1 f4       	brne	.+48     	; 0x213c <avr__usart__initialize__set_stop_bits.1926+0xc6>
                  Reg_USART2.UCSRC.USBS := TRUE;
    210c:	80 ed       	ldi	r24, 0xD0	; 208
    210e:	90 e0       	ldi	r25, 0x00	; 0
    2110:	fc 01       	movw	r30, r24
    2112:	22 81       	ldd	r18, Z+2	; 0x02
    2114:	28 60       	ori	r18, 0x08	; 8
    2116:	fc 01       	movw	r30, r24
    2118:	22 83       	std	Z+2, r18	; 0x02
            when USART3 =>
               if In_Setup.Stop_Bits = 2 then
                  Reg_USART3.UCSRC.USBS := TRUE;
               end if;
#end if;
         end case;
    211a:	10 c0       	rjmp	.+32     	; 0x213c <avr__usart__initialize__set_stop_bits.1926+0xc6>
               if In_Setup.Stop_Bits = 2 then
                  Reg_USART2.UCSRC.USBS := TRUE;
               end if;

            when USART3 =>
               if In_Setup.Stop_Bits = 2 then
    211c:	fc 01       	movw	r30, r24
    211e:	82 81       	ldd	r24, Z+2	; 0x02
    2120:	93 81       	ldd	r25, Z+3	; 0x03
    2122:	fc 01       	movw	r30, r24
    2124:	80 85       	ldd	r24, Z+8	; 0x08
    2126:	91 85       	ldd	r25, Z+9	; 0x09
    2128:	82 30       	cpi	r24, 0x02	; 2
    212a:	91 05       	cpc	r25, r1
    212c:	39 f4       	brne	.+14     	; 0x213c <avr__usart__initialize__set_stop_bits.1926+0xc6>
                  Reg_USART3.UCSRC.USBS := TRUE;
    212e:	80 e3       	ldi	r24, 0x30	; 48
    2130:	91 e0       	ldi	r25, 0x01	; 1
    2132:	fc 01       	movw	r30, r24
    2134:	22 81       	ldd	r18, Z+2	; 0x02
    2136:	28 60       	ori	r18, 0x08	; 8
    2138:	fc 01       	movw	r30, r24
    213a:	22 83       	std	Z+2, r18	; 0x02
               end if;
#end if;
         end case;
    213c:	00 00       	nop

      exception
         when others => null;
    213e:	01 c0       	rjmp	.+2      	; 0x2142 <avr__usart__initialize__set_stop_bits.1926+0xcc>
    2140:	00 00       	nop
      end Set_Stop_Bits;
    2142:	00 00       	nop
    2144:	0f 90       	pop	r0
    2146:	0f 90       	pop	r0
    2148:	cf 91       	pop	r28
    214a:	df 91       	pop	r29
    214c:	3f 90       	pop	r3
    214e:	2f 90       	pop	r2
    2150:	08 95       	ret

00002152 <avr__usart__initialize__clear_registers.1928>:

      procedure Clear_Registers
    2152:	2f 92       	push	r2
    2154:	3f 92       	push	r3
    2156:	df 93       	push	r29
    2158:	cf 93       	push	r28
    215a:	0f 92       	push	r0
    215c:	0f 92       	push	r0
    215e:	cd b7       	in	r28, 0x3d	; 61
    2160:	de b7       	in	r29, 0x3e	; 62
    2162:	91 01       	movw	r18, r2
    2164:	3a 82       	std	Y+2, r3	; 0x02
    2166:	29 82       	std	Y+1, r2	; 0x01
      is
   begin
         case In_Port is
    2168:	f9 01       	movw	r30, r18
    216a:	84 81       	ldd	r24, Z+4	; 0x04
    216c:	88 2f       	mov	r24, r24
    216e:	90 e0       	ldi	r25, 0x00	; 0
    2170:	a0 e0       	ldi	r26, 0x00	; 0
    2172:	b0 e0       	ldi	r27, 0x00	; 0
    2174:	84 30       	cpi	r24, 0x04	; 4
    2176:	91 05       	cpc	r25, r1
    2178:	a1 05       	cpc	r26, r1
    217a:	b1 05       	cpc	r27, r1
    217c:	08 f0       	brcs	.+2      	; 0x2180 <avr__usart__initialize__clear_registers.1928+0x2e>
    217e:	3e c0       	rjmp	.+124    	; 0x21fc <avr__usart__initialize__clear_registers.1928+0xaa>
    2180:	f9 01       	movw	r30, r18
    2182:	84 81       	ldd	r24, Z+4	; 0x04
    2184:	81 30       	cpi	r24, 0x01	; 1
    2186:	91 f0       	breq	.+36     	; 0x21ac <avr__usart__initialize__clear_registers.1928+0x5a>
    2188:	81 30       	cpi	r24, 0x01	; 1
    218a:	18 f0       	brcs	.+6      	; 0x2192 <avr__usart__initialize__clear_registers.1928+0x40>
    218c:	82 30       	cpi	r24, 0x02	; 2
    218e:	d9 f0       	breq	.+54     	; 0x21c6 <avr__usart__initialize__clear_registers.1928+0x74>
    2190:	27 c0       	rjmp	.+78     	; 0x21e0 <avr__usart__initialize__clear_registers.1928+0x8e>
            when USART0 =>
         AVR.USART.Reg_USART0.UCSRA := (others => <>);
    2192:	80 ec       	ldi	r24, 0xC0	; 192
    2194:	90 e0       	ldi	r25, 0x00	; 0
    2196:	fc 01       	movw	r30, r24
    2198:	10 82       	st	Z, r1
         AVR.USART.Reg_USART0.UCSRB := (others => <>);
    219a:	80 ec       	ldi	r24, 0xC0	; 192
    219c:	90 e0       	ldi	r25, 0x00	; 0
    219e:	fc 01       	movw	r30, r24
    21a0:	11 82       	std	Z+1, r1	; 0x01
         AVR.USART.Reg_USART0.UCSRC := (others => <>);
    21a2:	80 ec       	ldi	r24, 0xC0	; 192
    21a4:	90 e0       	ldi	r25, 0x00	; 0
    21a6:	fc 01       	movw	r30, r24
    21a8:	12 82       	std	Z+2, r1	; 0x02
            when USART3 =>
               AVR.USART.Reg_USART3.UCSRA := (others => <>);
               AVR.USART.Reg_USART3.UCSRB := (others => <>);
               AVR.USART.Reg_USART3.UCSRC := (others => <>);
#end if;
         end case;
    21aa:	26 c0       	rjmp	.+76     	; 0x21f8 <avr__usart__initialize__clear_registers.1928+0xa6>
         AVR.USART.Reg_USART0.UCSRB := (others => <>);
         AVR.USART.Reg_USART0.UCSRC := (others => <>);

#if MCU="ATMEGA2560" then
            when USART1 =>
               AVR.USART.Reg_USART1.UCSRA := (others => <>);
    21ac:	88 ec       	ldi	r24, 0xC8	; 200
    21ae:	90 e0       	ldi	r25, 0x00	; 0
    21b0:	fc 01       	movw	r30, r24
    21b2:	10 82       	st	Z, r1
               AVR.USART.Reg_USART1.UCSRB := (others => <>);
    21b4:	88 ec       	ldi	r24, 0xC8	; 200
    21b6:	90 e0       	ldi	r25, 0x00	; 0
    21b8:	fc 01       	movw	r30, r24
    21ba:	11 82       	std	Z+1, r1	; 0x01
               AVR.USART.Reg_USART1.UCSRC := (others => <>);
    21bc:	88 ec       	ldi	r24, 0xC8	; 200
    21be:	90 e0       	ldi	r25, 0x00	; 0
    21c0:	fc 01       	movw	r30, r24
    21c2:	12 82       	std	Z+2, r1	; 0x02
            when USART3 =>
               AVR.USART.Reg_USART3.UCSRA := (others => <>);
               AVR.USART.Reg_USART3.UCSRB := (others => <>);
               AVR.USART.Reg_USART3.UCSRC := (others => <>);
#end if;
         end case;
    21c4:	19 c0       	rjmp	.+50     	; 0x21f8 <avr__usart__initialize__clear_registers.1928+0xa6>
               AVR.USART.Reg_USART1.UCSRA := (others => <>);
               AVR.USART.Reg_USART1.UCSRB := (others => <>);
               AVR.USART.Reg_USART1.UCSRC := (others => <>);

            when USART2 =>
               AVR.USART.Reg_USART2.UCSRA := (others => <>);
    21c6:	80 ed       	ldi	r24, 0xD0	; 208
    21c8:	90 e0       	ldi	r25, 0x00	; 0
    21ca:	fc 01       	movw	r30, r24
    21cc:	10 82       	st	Z, r1
               AVR.USART.Reg_USART2.UCSRB := (others => <>);
    21ce:	80 ed       	ldi	r24, 0xD0	; 208
    21d0:	90 e0       	ldi	r25, 0x00	; 0
    21d2:	fc 01       	movw	r30, r24
    21d4:	11 82       	std	Z+1, r1	; 0x01
               AVR.USART.Reg_USART2.UCSRC := (others => <>);
    21d6:	80 ed       	ldi	r24, 0xD0	; 208
    21d8:	90 e0       	ldi	r25, 0x00	; 0
    21da:	fc 01       	movw	r30, r24
    21dc:	12 82       	std	Z+2, r1	; 0x02
            when USART3 =>
               AVR.USART.Reg_USART3.UCSRA := (others => <>);
               AVR.USART.Reg_USART3.UCSRB := (others => <>);
               AVR.USART.Reg_USART3.UCSRC := (others => <>);
#end if;
         end case;
    21de:	0c c0       	rjmp	.+24     	; 0x21f8 <avr__usart__initialize__clear_registers.1928+0xa6>
               AVR.USART.Reg_USART2.UCSRA := (others => <>);
               AVR.USART.Reg_USART2.UCSRB := (others => <>);
               AVR.USART.Reg_USART2.UCSRC := (others => <>);

            when USART3 =>
               AVR.USART.Reg_USART3.UCSRA := (others => <>);
    21e0:	80 e3       	ldi	r24, 0x30	; 48
    21e2:	91 e0       	ldi	r25, 0x01	; 1
    21e4:	fc 01       	movw	r30, r24
    21e6:	10 82       	st	Z, r1
               AVR.USART.Reg_USART3.UCSRB := (others => <>);
    21e8:	80 e3       	ldi	r24, 0x30	; 48
    21ea:	91 e0       	ldi	r25, 0x01	; 1
    21ec:	fc 01       	movw	r30, r24
    21ee:	11 82       	std	Z+1, r1	; 0x01
               AVR.USART.Reg_USART3.UCSRC := (others => <>);
    21f0:	80 e3       	ldi	r24, 0x30	; 48
    21f2:	91 e0       	ldi	r25, 0x01	; 1
    21f4:	fc 01       	movw	r30, r24
    21f6:	12 82       	std	Z+2, r1	; 0x02
#end if;
         end case;
    21f8:	00 00       	nop

      exception
         when others => null;
    21fa:	01 c0       	rjmp	.+2      	; 0x21fe <avr__usart__initialize__clear_registers.1928+0xac>
    21fc:	00 00       	nop
      end Clear_Registers;
    21fe:	00 00       	nop
    2200:	0f 90       	pop	r0
    2202:	0f 90       	pop	r0
    2204:	cf 91       	pop	r28
    2206:	df 91       	pop	r29
    2208:	3f 90       	pop	r3
    220a:	2f 90       	pop	r2
    220c:	08 95       	ret

0000220e <avr__usart__initialize__enable_tx_rx_and_maybe_rxcie.1930>:

      procedure Enable_Tx_Rx_And_Maybe_RXCIE
    220e:	2f 92       	push	r2
    2210:	3f 92       	push	r3
    2212:	df 93       	push	r29
    2214:	cf 93       	push	r28
    2216:	0f 92       	push	r0
    2218:	0f 92       	push	r0
    221a:	cd b7       	in	r28, 0x3d	; 61
    221c:	de b7       	in	r29, 0x3e	; 62
    221e:	c1 01       	movw	r24, r2
    2220:	3a 82       	std	Y+2, r3	; 0x02
    2222:	29 82       	std	Y+1, r2	; 0x01
      is
      begin
         case In_Port is
    2224:	fc 01       	movw	r30, r24
    2226:	24 81       	ldd	r18, Z+4	; 0x04
    2228:	22 2f       	mov	r18, r18
    222a:	30 e0       	ldi	r19, 0x00	; 0
    222c:	40 e0       	ldi	r20, 0x00	; 0
    222e:	50 e0       	ldi	r21, 0x00	; 0
    2230:	24 30       	cpi	r18, 0x04	; 4
    2232:	31 05       	cpc	r19, r1
    2234:	41 05       	cpc	r20, r1
    2236:	51 05       	cpc	r21, r1
    2238:	08 f0       	brcs	.+2      	; 0x223c <avr__usart__initialize__enable_tx_rx_and_maybe_rxcie.1930+0x2e>
    223a:	97 c0       	rjmp	.+302    	; 0x236a <avr__usart__initialize__enable_tx_rx_and_maybe_rxcie.1930+0x15c>
    223c:	fc 01       	movw	r30, r24
    223e:	24 81       	ldd	r18, Z+4	; 0x04
    2240:	21 30       	cpi	r18, 0x01	; 1
    2242:	49 f1       	breq	.+82     	; 0x2296 <avr__usart__initialize__enable_tx_rx_and_maybe_rxcie.1930+0x88>
    2244:	21 30       	cpi	r18, 0x01	; 1
    2246:	20 f0       	brcs	.+8      	; 0x2250 <avr__usart__initialize__enable_tx_rx_and_maybe_rxcie.1930+0x42>
    2248:	22 30       	cpi	r18, 0x02	; 2
    224a:	09 f4       	brne	.+2      	; 0x224e <avr__usart__initialize__enable_tx_rx_and_maybe_rxcie.1930+0x40>
    224c:	47 c0       	rjmp	.+142    	; 0x22dc <avr__usart__initialize__enable_tx_rx_and_maybe_rxcie.1930+0xce>
    224e:	69 c0       	rjmp	.+210    	; 0x2322 <avr__usart__initialize__enable_tx_rx_and_maybe_rxcie.1930+0x114>
            when USART0 =>
               Reg_USART0.UCSRB.TXEN := True;
    2250:	20 ec       	ldi	r18, 0xC0	; 192
    2252:	30 e0       	ldi	r19, 0x00	; 0
    2254:	f9 01       	movw	r30, r18
    2256:	41 81       	ldd	r20, Z+1	; 0x01
    2258:	48 60       	ori	r20, 0x08	; 8
    225a:	f9 01       	movw	r30, r18
    225c:	41 83       	std	Z+1, r20	; 0x01
               Reg_USART0.UCSRB.RXEN := True;
    225e:	20 ec       	ldi	r18, 0xC0	; 192
    2260:	30 e0       	ldi	r19, 0x00	; 0
    2262:	f9 01       	movw	r30, r18
    2264:	41 81       	ldd	r20, Z+1	; 0x01
    2266:	40 61       	ori	r20, 0x10	; 16
    2268:	f9 01       	movw	r30, r18
    226a:	41 83       	std	Z+1, r20	; 0x01
               Reg_USART0.UCSRB.RXCIE := (In_Setup.Model = INTERRUPTIVE);
    226c:	20 ec       	ldi	r18, 0xC0	; 192
    226e:	30 e0       	ldi	r19, 0x00	; 0
    2270:	fc 01       	movw	r30, r24
    2272:	82 81       	ldd	r24, Z+2	; 0x02
    2274:	93 81       	ldd	r25, Z+3	; 0x03
    2276:	fc 01       	movw	r30, r24
    2278:	92 85       	ldd	r25, Z+10	; 0x0a
    227a:	81 e0       	ldi	r24, 0x01	; 1
    227c:	91 30       	cpi	r25, 0x01	; 1
    227e:	09 f0       	breq	.+2      	; 0x2282 <avr__usart__initialize__enable_tx_rx_and_maybe_rxcie.1930+0x74>
    2280:	80 e0       	ldi	r24, 0x00	; 0
    2282:	87 95       	ror	r24
    2284:	88 27       	eor	r24, r24
    2286:	87 95       	ror	r24
    2288:	f9 01       	movw	r30, r18
    228a:	91 81       	ldd	r25, Z+1	; 0x01
    228c:	9f 77       	andi	r25, 0x7F	; 127
    228e:	89 2b       	or	r24, r25
    2290:	f9 01       	movw	r30, r18
    2292:	81 83       	std	Z+1, r24	; 0x01

            when USART3 =>
               Reg_USART3.UCSRB.TXEN := True;
               Reg_USART3.UCSRB.RXEN := True;
               Reg_USART3.UCSRB.RXCIE := (In_Setup.Model = INTERRUPTIVE);
         end case;
    2294:	68 c0       	rjmp	.+208    	; 0x2366 <avr__usart__initialize__enable_tx_rx_and_maybe_rxcie.1930+0x158>
               Reg_USART0.UCSRB.TXEN := True;
               Reg_USART0.UCSRB.RXEN := True;
               Reg_USART0.UCSRB.RXCIE := (In_Setup.Model = INTERRUPTIVE);

            when USART1 =>
               Reg_USART1.UCSRB.TXEN := True;
    2296:	28 ec       	ldi	r18, 0xC8	; 200
    2298:	30 e0       	ldi	r19, 0x00	; 0
    229a:	f9 01       	movw	r30, r18
    229c:	41 81       	ldd	r20, Z+1	; 0x01
    229e:	48 60       	ori	r20, 0x08	; 8
    22a0:	f9 01       	movw	r30, r18
    22a2:	41 83       	std	Z+1, r20	; 0x01
               Reg_USART1.UCSRB.RXEN := True;
    22a4:	28 ec       	ldi	r18, 0xC8	; 200
    22a6:	30 e0       	ldi	r19, 0x00	; 0
    22a8:	f9 01       	movw	r30, r18
    22aa:	41 81       	ldd	r20, Z+1	; 0x01
    22ac:	40 61       	ori	r20, 0x10	; 16
    22ae:	f9 01       	movw	r30, r18
    22b0:	41 83       	std	Z+1, r20	; 0x01
               Reg_USART1.UCSRB.RXCIE := (In_Setup.Model = INTERRUPTIVE);
    22b2:	28 ec       	ldi	r18, 0xC8	; 200
    22b4:	30 e0       	ldi	r19, 0x00	; 0
    22b6:	fc 01       	movw	r30, r24
    22b8:	82 81       	ldd	r24, Z+2	; 0x02
    22ba:	93 81       	ldd	r25, Z+3	; 0x03
    22bc:	fc 01       	movw	r30, r24
    22be:	92 85       	ldd	r25, Z+10	; 0x0a
    22c0:	81 e0       	ldi	r24, 0x01	; 1
    22c2:	91 30       	cpi	r25, 0x01	; 1
    22c4:	09 f0       	breq	.+2      	; 0x22c8 <avr__usart__initialize__enable_tx_rx_and_maybe_rxcie.1930+0xba>
    22c6:	80 e0       	ldi	r24, 0x00	; 0
    22c8:	87 95       	ror	r24
    22ca:	88 27       	eor	r24, r24
    22cc:	87 95       	ror	r24
    22ce:	f9 01       	movw	r30, r18
    22d0:	91 81       	ldd	r25, Z+1	; 0x01
    22d2:	9f 77       	andi	r25, 0x7F	; 127
    22d4:	89 2b       	or	r24, r25
    22d6:	f9 01       	movw	r30, r18
    22d8:	81 83       	std	Z+1, r24	; 0x01

            when USART3 =>
               Reg_USART3.UCSRB.TXEN := True;
               Reg_USART3.UCSRB.RXEN := True;
               Reg_USART3.UCSRB.RXCIE := (In_Setup.Model = INTERRUPTIVE);
         end case;
    22da:	45 c0       	rjmp	.+138    	; 0x2366 <avr__usart__initialize__enable_tx_rx_and_maybe_rxcie.1930+0x158>
               Reg_USART1.UCSRB.TXEN := True;
               Reg_USART1.UCSRB.RXEN := True;
               Reg_USART1.UCSRB.RXCIE := (In_Setup.Model = INTERRUPTIVE);

            when USART2 =>
               Reg_USART2.UCSRB.TXEN := True;
    22dc:	20 ed       	ldi	r18, 0xD0	; 208
    22de:	30 e0       	ldi	r19, 0x00	; 0
    22e0:	f9 01       	movw	r30, r18
    22e2:	41 81       	ldd	r20, Z+1	; 0x01
    22e4:	48 60       	ori	r20, 0x08	; 8
    22e6:	f9 01       	movw	r30, r18
    22e8:	41 83       	std	Z+1, r20	; 0x01
               Reg_USART2.UCSRB.RXEN := True;
    22ea:	20 ed       	ldi	r18, 0xD0	; 208
    22ec:	30 e0       	ldi	r19, 0x00	; 0
    22ee:	f9 01       	movw	r30, r18
    22f0:	41 81       	ldd	r20, Z+1	; 0x01
    22f2:	40 61       	ori	r20, 0x10	; 16
    22f4:	f9 01       	movw	r30, r18
    22f6:	41 83       	std	Z+1, r20	; 0x01
               Reg_USART2.UCSRB.RXCIE := (In_Setup.Model = INTERRUPTIVE);
    22f8:	20 ed       	ldi	r18, 0xD0	; 208
    22fa:	30 e0       	ldi	r19, 0x00	; 0
    22fc:	fc 01       	movw	r30, r24
    22fe:	82 81       	ldd	r24, Z+2	; 0x02
    2300:	93 81       	ldd	r25, Z+3	; 0x03
    2302:	fc 01       	movw	r30, r24
    2304:	92 85       	ldd	r25, Z+10	; 0x0a
    2306:	81 e0       	ldi	r24, 0x01	; 1
    2308:	91 30       	cpi	r25, 0x01	; 1
    230a:	09 f0       	breq	.+2      	; 0x230e <avr__usart__initialize__enable_tx_rx_and_maybe_rxcie.1930+0x100>
    230c:	80 e0       	ldi	r24, 0x00	; 0
    230e:	87 95       	ror	r24
    2310:	88 27       	eor	r24, r24
    2312:	87 95       	ror	r24
    2314:	f9 01       	movw	r30, r18
    2316:	91 81       	ldd	r25, Z+1	; 0x01
    2318:	9f 77       	andi	r25, 0x7F	; 127
    231a:	89 2b       	or	r24, r25
    231c:	f9 01       	movw	r30, r18
    231e:	81 83       	std	Z+1, r24	; 0x01

            when USART3 =>
               Reg_USART3.UCSRB.TXEN := True;
               Reg_USART3.UCSRB.RXEN := True;
               Reg_USART3.UCSRB.RXCIE := (In_Setup.Model = INTERRUPTIVE);
         end case;
    2320:	22 c0       	rjmp	.+68     	; 0x2366 <avr__usart__initialize__enable_tx_rx_and_maybe_rxcie.1930+0x158>
               Reg_USART2.UCSRB.TXEN := True;
               Reg_USART2.UCSRB.RXEN := True;
               Reg_USART2.UCSRB.RXCIE := (In_Setup.Model = INTERRUPTIVE);

            when USART3 =>
               Reg_USART3.UCSRB.TXEN := True;
    2322:	20 e3       	ldi	r18, 0x30	; 48
    2324:	31 e0       	ldi	r19, 0x01	; 1
    2326:	f9 01       	movw	r30, r18
    2328:	41 81       	ldd	r20, Z+1	; 0x01
    232a:	48 60       	ori	r20, 0x08	; 8
    232c:	f9 01       	movw	r30, r18
    232e:	41 83       	std	Z+1, r20	; 0x01
               Reg_USART3.UCSRB.RXEN := True;
    2330:	20 e3       	ldi	r18, 0x30	; 48
    2332:	31 e0       	ldi	r19, 0x01	; 1
    2334:	f9 01       	movw	r30, r18
    2336:	41 81       	ldd	r20, Z+1	; 0x01
    2338:	40 61       	ori	r20, 0x10	; 16
    233a:	f9 01       	movw	r30, r18
    233c:	41 83       	std	Z+1, r20	; 0x01
               Reg_USART3.UCSRB.RXCIE := (In_Setup.Model = INTERRUPTIVE);
    233e:	20 e3       	ldi	r18, 0x30	; 48
    2340:	31 e0       	ldi	r19, 0x01	; 1
    2342:	fc 01       	movw	r30, r24
    2344:	82 81       	ldd	r24, Z+2	; 0x02
    2346:	93 81       	ldd	r25, Z+3	; 0x03
    2348:	fc 01       	movw	r30, r24
    234a:	92 85       	ldd	r25, Z+10	; 0x0a
    234c:	81 e0       	ldi	r24, 0x01	; 1
    234e:	91 30       	cpi	r25, 0x01	; 1
    2350:	09 f0       	breq	.+2      	; 0x2354 <avr__usart__initialize__enable_tx_rx_and_maybe_rxcie.1930+0x146>
    2352:	80 e0       	ldi	r24, 0x00	; 0
    2354:	87 95       	ror	r24
    2356:	88 27       	eor	r24, r24
    2358:	87 95       	ror	r24
    235a:	f9 01       	movw	r30, r18
    235c:	91 81       	ldd	r25, Z+1	; 0x01
    235e:	9f 77       	andi	r25, 0x7F	; 127
    2360:	89 2b       	or	r24, r25
    2362:	f9 01       	movw	r30, r18
    2364:	81 83       	std	Z+1, r24	; 0x01
         end case;
    2366:	00 00       	nop

      exception
         when others => null;
    2368:	01 c0       	rjmp	.+2      	; 0x236c <avr__usart__initialize__enable_tx_rx_and_maybe_rxcie.1930+0x15e>
    236a:	00 00       	nop
      end Enable_Tx_Rx_And_Maybe_RXCIE;
    236c:	00 00       	nop
    236e:	0f 90       	pop	r0
    2370:	0f 90       	pop	r0
    2372:	cf 91       	pop	r28
    2374:	df 91       	pop	r29
    2376:	3f 90       	pop	r3
    2378:	2f 90       	pop	r2
    237a:	08 95       	ret

0000237c <avr__usart__put__2>:

   exception
      when others => null;
   end Initialize;

   procedure Put (Port : Port_Type := USART0; Data : Character) is
    237c:	df 93       	push	r29
    237e:	cf 93       	push	r28
    2380:	0f 92       	push	r0
    2382:	0f 92       	push	r0
    2384:	cd b7       	in	r28, 0x3d	; 61
    2386:	de b7       	in	r29, 0x3e	; 62
    2388:	89 83       	std	Y+1, r24	; 0x01
    238a:	6a 83       	std	Y+2, r22	; 0x02
   begin
      Put (Port => Port,
    238c:	89 81       	ldd	r24, Y+1	; 0x01
    238e:	6a 81       	ldd	r22, Y+2	; 0x02
    2390:	0e 94 51 12 	call	0x24a2	; 0x24a2 <avr__usart__put>
           Data => To_Unsigned_8 (Data));
   end Put;
    2394:	00 00       	nop
    2396:	0f 90       	pop	r0
    2398:	0f 90       	pop	r0
    239a:	cf 91       	pop	r28
    239c:	df 91       	pop	r29
    239e:	08 95       	ret

000023a0 <avr__usart__put__3>:

   procedure Put (Port : Port_Type := USART0; Data : Character_Acc) is
    23a0:	df 93       	push	r29
    23a2:	cf 93       	push	r28
    23a4:	00 d0       	rcall	.+0      	; 0x23a6 <avr__usart__put__3+0x6>
    23a6:	0f 92       	push	r0
    23a8:	0f 92       	push	r0
    23aa:	cd b7       	in	r28, 0x3d	; 61
    23ac:	de b7       	in	r29, 0x3e	; 62
    23ae:	8b 83       	std	Y+3, r24	; 0x03
    23b0:	7d 83       	std	Y+5, r23	; 0x05
    23b2:	6c 83       	std	Y+4, r22	; 0x04
      Data_Str : Character_Acc := Data;
    23b4:	8c 81       	ldd	r24, Y+4	; 0x04
    23b6:	9d 81       	ldd	r25, Y+5	; 0x05
    23b8:	9a 83       	std	Y+2, r25	; 0x02
    23ba:	89 83       	std	Y+1, r24	; 0x01
   begin
      if Data_Str = null then return; end if;
    23bc:	89 81       	ldd	r24, Y+1	; 0x01
    23be:	9a 81       	ldd	r25, Y+2	; 0x02
    23c0:	00 97       	sbiw	r24, 0x00	; 0
    23c2:	01 f1       	breq	.+64     	; 0x2404 <avr__usart__put__3+0x64>
      while Data_Str.all /= ASCII.NUL loop
    23c4:	89 81       	ldd	r24, Y+1	; 0x01
    23c6:	9a 81       	ldd	r25, Y+2	; 0x02
    23c8:	00 97       	sbiw	r24, 0x00	; 0
    23ca:	b9 f0       	breq	.+46     	; 0x23fa <avr__usart__put__3+0x5a>
    23cc:	89 81       	ldd	r24, Y+1	; 0x01
    23ce:	9a 81       	ldd	r25, Y+2	; 0x02
    23d0:	fc 01       	movw	r30, r24
    23d2:	80 81       	ld	r24, Z
    23d4:	88 23       	and	r24, r24
    23d6:	99 f0       	breq	.+38     	; 0x23fe <avr__usart__put__3+0x5e>
         Put (Port => Port,
    23d8:	89 81       	ldd	r24, Y+1	; 0x01
    23da:	9a 81       	ldd	r25, Y+2	; 0x02
    23dc:	fc 01       	movw	r30, r24
    23de:	90 81       	ld	r25, Z
    23e0:	8b 81       	ldd	r24, Y+3	; 0x03
    23e2:	69 2f       	mov	r22, r25
    23e4:	0e 94 be 11 	call	0x237c	; 0x237c <avr__usart__put__2>
              Data => Data_Str.all);
         Data_Str := Data_Str + 1;
    23e8:	89 81       	ldd	r24, Y+1	; 0x01
    23ea:	9a 81       	ldd	r25, Y+2	; 0x02
    23ec:	61 e0       	ldi	r22, 0x01	; 1
    23ee:	70 e0       	ldi	r23, 0x00	; 0
    23f0:	0e 94 2a 17 	call	0x2e54	; 0x2e54 <avr__usart__Oadd>
    23f4:	9a 83       	std	Y+2, r25	; 0x02
    23f6:	89 83       	std	Y+1, r24	; 0x01
      end loop;
    23f8:	e5 cf       	rjmp	.-54     	; 0x23c4 <avr__usart__put__3+0x24>
   exception
      when others => null;
    23fa:	00 00       	nop
    23fc:	01 c0       	rjmp	.+2      	; 0x2400 <avr__usart__put__3+0x60>
    23fe:	00 00       	nop
   end Put;
    2400:	00 00       	nop
    2402:	01 c0       	rjmp	.+2      	; 0x2406 <avr__usart__put__3+0x66>
   end Put;

   procedure Put (Port : Port_Type := USART0; Data : Character_Acc) is
      Data_Str : Character_Acc := Data;
   begin
      if Data_Str = null then return; end if;
    2404:	00 00       	nop
              Data => Data_Str.all);
         Data_Str := Data_Str + 1;
      end loop;
   exception
      when others => null;
   end Put;
    2406:	0f 90       	pop	r0
    2408:	0f 90       	pop	r0
    240a:	0f 90       	pop	r0
    240c:	0f 90       	pop	r0
    240e:	0f 90       	pop	r0
    2410:	cf 91       	pop	r28
    2412:	df 91       	pop	r29
    2414:	08 95       	ret

00002416 <avr__usart__put__4>:

   procedure Put (Port : Port_Type := USART0; Data : String_U8) is
    2416:	0f 93       	push	r16
    2418:	1f 93       	push	r17
    241a:	df 93       	push	r29
    241c:	cf 93       	push	r28
    241e:	cd b7       	in	r28, 0x3d	; 61
    2420:	de b7       	in	r29, 0x3e	; 62
    2422:	28 97       	sbiw	r28, 0x08	; 8
    2424:	0f b6       	in	r0, 0x3f	; 63
    2426:	f8 94       	cli
    2428:	de bf       	out	0x3e, r29	; 62
    242a:	0f be       	out	0x3f, r0	; 63
    242c:	cd bf       	out	0x3d, r28	; 61
    242e:	8c 83       	std	Y+4, r24	; 0x04
    2430:	4d 83       	std	Y+5, r20	; 0x05
    2432:	5e 83       	std	Y+6, r21	; 0x06
    2434:	6f 83       	std	Y+7, r22	; 0x07
    2436:	78 87       	std	Y+8, r23	; 0x08
    2438:	8f 81       	ldd	r24, Y+7	; 0x07
    243a:	98 85       	ldd	r25, Y+8	; 0x08
    243c:	fc 01       	movw	r30, r24
    243e:	20 81       	ld	r18, Z
    2440:	8f 81       	ldd	r24, Y+7	; 0x07
    2442:	98 85       	ldd	r25, Y+8	; 0x08
    2444:	fc 01       	movw	r30, r24
    2446:	81 81       	ldd	r24, Z+1	; 0x01
    2448:	02 2f       	mov	r16, r18
    244a:	10 e0       	ldi	r17, 0x00	; 0
   begin
      for Index in Data'Range loop
    244c:	2a 83       	std	Y+2, r18	; 0x02
    244e:	8b 83       	std	Y+3, r24	; 0x03
    2450:	9a 81       	ldd	r25, Y+2	; 0x02
    2452:	8b 81       	ldd	r24, Y+3	; 0x03
    2454:	89 17       	cp	r24, r25
    2456:	c8 f0       	brcs	.+50     	; 0x248a <avr__usart__put__4+0x74>
    2458:	8a 81       	ldd	r24, Y+2	; 0x02
    245a:	89 83       	std	Y+1, r24	; 0x01
         Put (Port => Port,
    245c:	2d 81       	ldd	r18, Y+5	; 0x05
    245e:	3e 81       	ldd	r19, Y+6	; 0x06
    2460:	89 81       	ldd	r24, Y+1	; 0x01
    2462:	88 2f       	mov	r24, r24
    2464:	90 e0       	ldi	r25, 0x00	; 0
    2466:	80 1b       	sub	r24, r16
    2468:	91 0b       	sbc	r25, r17
    246a:	82 0f       	add	r24, r18
    246c:	93 1f       	adc	r25, r19
    246e:	fc 01       	movw	r30, r24
    2470:	90 81       	ld	r25, Z
    2472:	8c 81       	ldd	r24, Y+4	; 0x04
    2474:	69 2f       	mov	r22, r25
    2476:	0e 94 be 11 	call	0x237c	; 0x237c <avr__usart__put__2>
      when others => null;
   end Put;

   procedure Put (Port : Port_Type := USART0; Data : String_U8) is
   begin
      for Index in Data'Range loop
    247a:	99 81       	ldd	r25, Y+1	; 0x01
    247c:	8b 81       	ldd	r24, Y+3	; 0x03
    247e:	98 17       	cp	r25, r24
    2480:	21 f0       	breq	.+8      	; 0x248a <avr__usart__put__4+0x74>
    2482:	89 81       	ldd	r24, Y+1	; 0x01
    2484:	8f 5f       	subi	r24, 0xFF	; 255
    2486:	89 83       	std	Y+1, r24	; 0x01
         Put (Port => Port,
              Data => Data (Index));
      end loop;
    2488:	e9 cf       	rjmp	.-46     	; 0x245c <avr__usart__put__4+0x46>
   end Put;
    248a:	00 00       	nop
    248c:	28 96       	adiw	r28, 0x08	; 8
    248e:	0f b6       	in	r0, 0x3f	; 63
    2490:	f8 94       	cli
    2492:	de bf       	out	0x3e, r29	; 62
    2494:	0f be       	out	0x3f, r0	; 63
    2496:	cd bf       	out	0x3d, r28	; 61
    2498:	cf 91       	pop	r28
    249a:	df 91       	pop	r29
    249c:	1f 91       	pop	r17
    249e:	0f 91       	pop	r16
    24a0:	08 95       	ret

000024a2 <avr__usart__put>:

   procedure Put (Port : Port_Type := USART0; Data : Unsigned_8) is
    24a2:	df 93       	push	r29
    24a4:	cf 93       	push	r28
    24a6:	0f 92       	push	r0
    24a8:	0f 92       	push	r0
    24aa:	cd b7       	in	r28, 0x3d	; 61
    24ac:	de b7       	in	r29, 0x3e	; 62
    24ae:	89 83       	std	Y+1, r24	; 0x01
    24b0:	6a 83       	std	Y+2, r22	; 0x02
   begin
      -- Loop while the transmit buffer UDRn us bit ready to receive
      -- new data.

      case Port is
    24b2:	89 81       	ldd	r24, Y+1	; 0x01
    24b4:	88 2f       	mov	r24, r24
    24b6:	90 e0       	ldi	r25, 0x00	; 0
    24b8:	a0 e0       	ldi	r26, 0x00	; 0
    24ba:	b0 e0       	ldi	r27, 0x00	; 0
    24bc:	84 30       	cpi	r24, 0x04	; 4
    24be:	91 05       	cpc	r25, r1
    24c0:	a1 05       	cpc	r26, r1
    24c2:	b1 05       	cpc	r27, r1
    24c4:	08 f0       	brcs	.+2      	; 0x24c8 <avr__usart__put+0x26>
    24c6:	5d c0       	rjmp	.+186    	; 0x2582 <avr__usart__put+0xe0>
    24c8:	89 81       	ldd	r24, Y+1	; 0x01
    24ca:	81 30       	cpi	r24, 0x01	; 1
    24cc:	d1 f0       	breq	.+52     	; 0x2502 <avr__usart__put+0x60>
    24ce:	81 30       	cpi	r24, 0x01	; 1
    24d0:	18 f0       	brcs	.+6      	; 0x24d8 <avr__usart__put+0x36>
    24d2:	82 30       	cpi	r24, 0x02	; 2
    24d4:	59 f1       	breq	.+86     	; 0x252c <avr__usart__put+0x8a>
    24d6:	3f c0       	rjmp	.+126    	; 0x2556 <avr__usart__put+0xb4>
      when USART0 =>
         while not Reg_USART0.UCSRA.UDRE loop null; end loop;
    24d8:	80 ec       	ldi	r24, 0xC0	; 192
    24da:	90 e0       	ldi	r25, 0x00	; 0
    24dc:	fc 01       	movw	r30, r24
    24de:	80 81       	ld	r24, Z
    24e0:	82 95       	swap	r24
    24e2:	86 95       	lsr	r24
    24e4:	87 70       	andi	r24, 0x07	; 7
    24e6:	81 70       	andi	r24, 0x01	; 1
    24e8:	98 2f       	mov	r25, r24
    24ea:	81 e0       	ldi	r24, 0x01	; 1
    24ec:	89 27       	eor	r24, r25
    24ee:	88 23       	and	r24, r24
    24f0:	11 f0       	breq	.+4      	; 0x24f6 <avr__usart__put+0x54>
    24f2:	00 00       	nop
    24f4:	f1 cf       	rjmp	.-30     	; 0x24d8 <avr__usart__put+0x36>
         Reg_USART0.UDR := Byte_Type (Data);
    24f6:	80 ec       	ldi	r24, 0xC0	; 192
    24f8:	90 e0       	ldi	r25, 0x00	; 0
    24fa:	2a 81       	ldd	r18, Y+2	; 0x02
    24fc:	fc 01       	movw	r30, r24
    24fe:	26 83       	std	Z+6, r18	; 0x06

      when USART3 =>
         while not Reg_USART3.UCSRA.UDRE loop null; end loop;
         Reg_USART3.UDR := Byte_Type (Data);
#end if;
      end case;
    2500:	3e c0       	rjmp	.+124    	; 0x257e <avr__usart__put+0xdc>
         while not Reg_USART0.UCSRA.UDRE loop null; end loop;
         Reg_USART0.UDR := Byte_Type (Data);

#if MCU="ATMEGA2560" then
      when USART1 =>
         while not Reg_USART1.UCSRA.UDRE loop null; end loop;
    2502:	88 ec       	ldi	r24, 0xC8	; 200
    2504:	90 e0       	ldi	r25, 0x00	; 0
    2506:	fc 01       	movw	r30, r24
    2508:	80 81       	ld	r24, Z
    250a:	82 95       	swap	r24
    250c:	86 95       	lsr	r24
    250e:	87 70       	andi	r24, 0x07	; 7
    2510:	81 70       	andi	r24, 0x01	; 1
    2512:	98 2f       	mov	r25, r24
    2514:	81 e0       	ldi	r24, 0x01	; 1
    2516:	89 27       	eor	r24, r25
    2518:	88 23       	and	r24, r24
    251a:	11 f0       	breq	.+4      	; 0x2520 <avr__usart__put+0x7e>
    251c:	00 00       	nop
    251e:	f1 cf       	rjmp	.-30     	; 0x2502 <avr__usart__put+0x60>
         Reg_USART1.UDR := Byte_Type (Data);
    2520:	88 ec       	ldi	r24, 0xC8	; 200
    2522:	90 e0       	ldi	r25, 0x00	; 0
    2524:	2a 81       	ldd	r18, Y+2	; 0x02
    2526:	fc 01       	movw	r30, r24
    2528:	26 83       	std	Z+6, r18	; 0x06

      when USART3 =>
         while not Reg_USART3.UCSRA.UDRE loop null; end loop;
         Reg_USART3.UDR := Byte_Type (Data);
#end if;
      end case;
    252a:	29 c0       	rjmp	.+82     	; 0x257e <avr__usart__put+0xdc>
      when USART1 =>
         while not Reg_USART1.UCSRA.UDRE loop null; end loop;
         Reg_USART1.UDR := Byte_Type (Data);

      when USART2 =>
         while not Reg_USART2.UCSRA.UDRE loop null; end loop;
    252c:	80 ed       	ldi	r24, 0xD0	; 208
    252e:	90 e0       	ldi	r25, 0x00	; 0
    2530:	fc 01       	movw	r30, r24
    2532:	80 81       	ld	r24, Z
    2534:	82 95       	swap	r24
    2536:	86 95       	lsr	r24
    2538:	87 70       	andi	r24, 0x07	; 7
    253a:	81 70       	andi	r24, 0x01	; 1
    253c:	98 2f       	mov	r25, r24
    253e:	81 e0       	ldi	r24, 0x01	; 1
    2540:	89 27       	eor	r24, r25
    2542:	88 23       	and	r24, r24
    2544:	11 f0       	breq	.+4      	; 0x254a <avr__usart__put+0xa8>
    2546:	00 00       	nop
    2548:	f1 cf       	rjmp	.-30     	; 0x252c <avr__usart__put+0x8a>
         Reg_USART2.UDR := Byte_Type (Data);
